(dp1
S'output'
p2
S'<class \'_mysql_exceptions.ProgrammingError\'> (1146, "Table \'cssow.sow_learning_episodes\' doesn\'t exist")'
p3
sS'layer'
p4
S'C:\\Dev\\cssow_web2py\\src\\applications\\schemeofwork\\controllers/learningobjective.py'
p5
sS'code'
p6
S'<code object <module> at 073859B0, file "C:\\Dev\\cssow_web2py\\src\\applications\\schemeofwork\\controllers/learningobjective.py", line 2>'
p7
sS'snapshot'
p8
(dp9
sS'traceback'
p10
S'Traceback (most recent call last):\n  File "C:\\Dev\\cssow_web2py\\src\\gluon\\restricted.py", line 219, in restricted\n    exec(ccode, environment)\n  File "C:\\Dev\\cssow_web2py\\src\\applications\\schemeofwork\\controllers/learningobjective.py", line 82, in <module>\n  File "C:\\Dev\\cssow_web2py\\src\\gluon\\globals.py", line 421, in <lambda>\n    self._caller = lambda f: f()\n  File "C:\\Dev\\cssow_web2py\\src\\applications\\schemeofwork\\controllers/learningobjective.py", line 21, in index\n    learning_episode_options = learningepisiodeModel.get_options()\n  File "applications/schemeofwork/models/learningepisodeModel.py", line 61, in get_options\n    rows = db.executesql("SELECT id, order_of_delivery_id FROM sow_learning_episodes"); #WHERE scheme_of_work_id = {};".format(scheme_of_work_id))\n  File "C:\\Dev\\cssow_web2py\\src\\gluon\\packages\\dal\\pydal\\base.py", line 772, in executesql\n    adapter.execute(query)\n  File "C:\\Dev\\cssow_web2py\\src\\gluon\\packages\\dal\\pydal\\adapters\\__init__.py", line 67, in wrap\n    return f(*args, **kwargs)\n  File "C:\\Dev\\cssow_web2py\\src\\gluon\\packages\\dal\\pydal\\adapters\\base.py", line 413, in execute\n    rv = self.cursor.execute(command, *args[1:], **kwargs)\n  File "MySQLdb/cursors.py", line 205, in execute\n  File "MySQLdb/connections.py", line 36, in defaulterrorhandler\nProgrammingError: (1146, "Table \'cssow.sow_learning_episodes\' doesn\'t exist")\n'
p11
s.