(dp1
S'output'
p2
S"<class '_mysql_exceptions.IntegrityError'> (1452, 'Cannot add or update a child row: a foreign key constraint fails (`cssow`.`sow_learning_episode`, CONSTRAINT `sow_learning_episode_ibfk_1` FOREIGN KEY (`scheme_of_work_id`) REFERENCES `sow_scheme_of_work` (`id`) ON DELETE CASCADE)')"
p3
sS'layer'
p4
S'C:\\Dev\\cssow_web2py\\src\\applications\\schemeofwork\\controllers/learningepisode.py'
p5
sS'code'
p6
S'<code object <module> at 0BD23770, file "C:\\Dev\\cssow_web2py\\src\\applications\\schemeofwork\\controllers/learningepisode.py", line 2>'
p7
sS'snapshot'
p8
(dp9
sS'traceback'
p10
S'Traceback (most recent call last):\n  File "C:\\Dev\\cssow_web2py\\src\\gluon\\restricted.py", line 219, in restricted\n    exec(ccode, environment)\n  File "C:\\Dev\\cssow_web2py\\src\\applications\\schemeofwork\\controllers/learningepisode.py", line 52, in <module>\n  File "C:\\Dev\\cssow_web2py\\src\\gluon\\globals.py", line 421, in <lambda>\n    self._caller = lambda f: f()\n  File "C:\\Dev\\cssow_web2py\\src\\gluon\\tools.py", line 3867, in f\n    return action(*a, **b)\n  File "C:\\Dev\\cssow_web2py\\src\\applications\\schemeofwork\\controllers/learningepisode.py", line 40, in save_item\n    learningepisodeModel.save(auth.user.id)\n  File "applications/schemeofwork/models/learningepisodeModel.py", line 92, in save\n    rval = model._insert()\n  File "applications/schemeofwork/models/learningepisodeModel.py", line 61, in _insert\n    db.executesql(str_insert)\n  File "C:\\Dev\\cssow_web2py\\src\\gluon\\packages\\dal\\pydal\\base.py", line 772, in executesql\n    adapter.execute(query)\n  File "C:\\Dev\\cssow_web2py\\src\\gluon\\packages\\dal\\pydal\\adapters\\__init__.py", line 67, in wrap\n    return f(*args, **kwargs)\n  File "C:\\Dev\\cssow_web2py\\src\\gluon\\packages\\dal\\pydal\\adapters\\base.py", line 413, in execute\n    rv = self.cursor.execute(command, *args[1:], **kwargs)\n  File "MySQLdb/cursors.py", line 205, in execute\n  File "MySQLdb/connections.py", line 36, in defaulterrorhandler\nIntegrityError: (1452, \'Cannot add or update a child row: a foreign key constraint fails (`cssow`.`sow_learning_episode`, CONSTRAINT `sow_learning_episode_ibfk_1` FOREIGN KEY (`scheme_of_work_id`) REFERENCES `sow_scheme_of_work` (`id`) ON DELETE CASCADE)\')\n'
p11
s.