(dp1
S'output'
p2
S"<type 'exceptions.RuntimeError'> maximum recursion depth exceeded in cmp"
p3
sS'layer'
p4
S'C:\\Dev\\cssow_web2py\\src\\applications\\schemeofwork\\models\\learningobjectiveModel.py'
p5
sS'code'
p6
S'<code object <module> at 0B0C45C0, file "C:\\Dev\\cssow_web2py\\src\\applications\\schemeofwork\\models\\learningobjectiveModel.py", line 2>'
p7
sS'snapshot'
p8
(dp9
sS'traceback'
p10
S'Traceback (most recent call last):\n  File "C:\\Dev\\cssow_web2py\\src\\gluon\\restricted.py", line 219, in restricted\n    exec(ccode, environment)\n  File "C:\\Dev\\cssow_web2py\\src\\applications\\schemeofwork\\models\\learningobjectiveModel.py", line 4, in <module>\n    learningobjectiveModel = exec_environment(\'applications/schemeofwork/models/learningobjectiveModel.py\', request=request)\n  File "C:\\Dev\\cssow_web2py\\src\\gluon\\shell.py", line 100, in exec_environment\n    execfile(pyfile, env)\n  File "applications/schemeofwork/models/learningobjectiveModel.py", line 4, in <module>\n    learningobjectiveModel = exec_environment(\'applications/schemeofwork/models/learningobjectiveModel.py\', request=request)\n  File "C:\\Dev\\cssow_web2py\\src\\gluon\\shell.py", line 100, in exec_environment\n    execfile(pyfile, env)\n  File "applications/schemeofwork/models/learningobjectiveModel.py", line 4, in <module>\n    learningobjectiveModel = exec_environment(\'applications/schemeofwork/models/learningobjectiveModel.py\', request=request)\n  File "C:\\Dev\\cssow_web2py\\src\\gluon\\shell.py", line 100, in exec_environment\n    execfile(pyfile, env)\n  File "applications/schemeofwork/models/learningobjectiveModel.py", line 4, in <module>\n    learningobjectiveModel = exec_environment(\'applications/schemeofwork/models/learningobjectiveModel.py\', request=request)\n  File "C:\\Dev\\cssow_web2py\\src\\gluon\\shell.py", line 100, in exec_environment\n    execfile(pyfile, env)\n  File "applications/schemeofwork/models/learningobjectiveModel.py", line 4, in <module>\n    learningobjectiveModel = exec_environment(\'applications/schemeofwork/models/learningobjectiveModel.py\', request=request)\n  File "C:\\Dev\\cssow_web2py\\src\\gluon\\shell.py", line 100, in exec_environment\n    execfile(pyfile, env)\n  File "applications/schemeofwork/models/learningobjectiveModel.py", line 4, in <module>\n    learningobjectiveModel = exec_environment(\'applications/schemeofwork/models/learningobjectiveModel.py\', request=request)\n  File "C:\\Dev\\cssow_web2py\\src\\gluon\\shell.py", line 100, in exec_environment\n    execfile(pyfile, env)\n  File "applications/schemeofwork/models/learningobjectiveModel.py", line 4, in <module>\n    learningobjectiveModel = exec_environment(\'applications/schemeofwork/models/learningobjectiveModel.py\', request=request)\n  File "C:\\Dev\\cssow_web2py\\src\\gluon\\shell.py", line 100, in exec_environment\n    execfile(pyfile, env)\n  File "applications/schemeofwork/models/learningobjectiveModel.py", line 4, in <module>\n    learningobjectiveModel = exec_environment(\'applications/schemeofwork/models/learningobjectiveModel.py\', request=request)\n  File "C:\\Dev\\cssow_web2py\\src\\gluon\\shell.py", line 100, in exec_environment\n    execfile(pyfile, env)\n  File "applications/schemeofwork/models/learningobjectiveModel.py", line 4, in <module>\n    learningobjectiveModel = exec_environment(\'applications/schemeofwork/models/learningobjectiveModel.py\', request=request)\n  File "C:\\Dev\\cssow_web2py\\src\\gluon\\shell.py", line 100, in exec_environment\n    execfile(pyfile, env)\n  File "applications/schemeofwork/models/learningobjectiveModel.py", line 4, in <module>\n    learningobjectiveModel = exec_environment(\'applications/schemeofwork/models/learningobjectiveModel.py\', request=request)\n  File "C:\\Dev\\cssow_web2py\\src\\gluon\\shell.py", line 100, in exec_environment\n    execfile(pyfile, env)\n  File "applications/schemeofwork/models/learningobjectiveModel.py", line 4, in <module>\n    learningobjectiveModel = exec_environment(\'applications/schemeofwork/models/learningobjectiveModel.py\', request=request)\n  File "C:\\Dev\\cssow_web2py\\src\\gluon\\shell.py", line 100, in exec_environment\n    execfile(pyfile, env)\n  File "applications/schemeofwork/models/learningobjectiveModel.py", line 4, in <module>\n    learningobjectiveModel = exec_environment(\'applications/schemeofwork/models/learningobjectiveModel.py\', request=request)\n  File "C:\\Dev\\cssow_web2py\\src\\gluon\\shell.py", line 100, in exec_environment\n    execfile(pyfile, env)\n  File "applications/schemeofwork/models/learningobjectiveModel.py", line 4, in <module>\n    learningobjectiveModel = exec_environment(\'applications/schemeofwork/models/learningobjectiveModel.py\', request=request)\n  File "C:\\Dev\\cssow_web2py\\src\\gluon\\shell.py", line 100, in exec_environment\n    execfile(pyfile, env)\n  File "applications/schemeofwork/models/learningobjectiveModel.py", line 4, in <module>\n    learningobjectiveModel = exec_environment(\'applications/schemeofwork/models/learningobjectiveModel.py\', request=request)\n  File "C:\\Dev\\cssow_web2py\\src\\gluon\\shell.py", line 100, in exec_environment\n    execfile(pyfile, env)\n  File "applications/schemeofwork/models/learningobjectiveModel.py", line 4, in <module>\n    learningobjectiveModel = exec_environment(\'applications/schemeofwork/models/learningobjectiveModel.py\', request=request)\n  File "C:\\Dev\\cssow_web2py\\src\\gluon\\shell.py", line 100, in exec_environment\n    execfile(pyfile, env)\n  File "applications/schemeofwork/models/learningobjectiveModel.py", line 4, in <module>\n    learningobjectiveModel = exec_environment(\'applications/schemeofwork/models/learningobjectiveModel.py\', request=request)\n  File "C:\\Dev\\cssow_web2py\\src\\gluon\\shell.py", line 100, in exec_environment\n    execfile(pyfile, env)\n  File "applications/schemeofwork/models/learningobjectiveModel.py", line 4, in <module>\n    learningobjectiveModel = exec_environment(\'applications/schemeofwork/models/learningobjectiveModel.py\', request=request)\n  File "C:\\Dev\\cssow_web2py\\src\\gluon\\shell.py", line 100, in exec_environment\n    execfile(pyfile, env)\n  File "applications/schemeofwork/models/learningobjectiveModel.py", line 4, in <module>\n    learningobjectiveModel = exec_environment(\'applications/schemeofwork/models/learningobjectiveModel.py\', request=request)\n  File "C:\\Dev\\cssow_web2py\\src\\gluon\\shell.py", line 100, in exec_environment\n    execfile(pyfile, env)\n  File "applications/schemeofwork/models/learningobjectiveModel.py", line 4, in <module>\n    learningobjectiveModel = exec_environment(\'applications/schemeofwork/models/learningobjectiveModel.py\', request=request)\n  File "C:\\Dev\\cssow_web2py\\src\\gluon\\shell.py", line 100, in exec_environment\n    execfile(pyfile, env)\n  File "applications/schemeofwork/models/learningobjectiveModel.py", line 4, in <module>\n    learningobjectiveModel = exec_environment(\'applications/schemeofwork/models/learningobjectiveModel.py\', request=request)\n  File "C:\\Dev\\cssow_web2py\\src\\gluon\\shell.py", line 100, in exec_environment\n    execfile(pyfile, env)\n  File "applications/schemeofwork/models/learningobjectiveModel.py", line 4, in <module>\n    learningobjectiveModel = exec_environment(\'applications/schemeofwork/models/learningobjectiveModel.py\', request=request)\n  File "C:\\Dev\\cssow_web2py\\src\\gluon\\shell.py", line 100, in exec_environment\n    execfile(pyfile, env)\n  File "applications/schemeofwork/models/learningobjectiveModel.py", line 4, in <module>\n    learningobjectiveModel = exec_environment(\'applications/schemeofwork/models/learningobjectiveModel.py\', request=request)\n  File "C:\\Dev\\cssow_web2py\\src\\gluon\\shell.py", line 100, in exec_environment\n    execfile(pyfile, env)\n  File "applications/schemeofwork/models/learningobjectiveModel.py", line 4, in <module>\n    learningobjectiveModel = exec_environment(\'applications/schemeofwork/models/learningobjectiveModel.py\', request=request)\n  File "C:\\Dev\\cssow_web2py\\src\\gluon\\shell.py", line 100, in exec_environment\n    execfile(pyfile, env)\n  File "applications/schemeofwork/models/learningobjectiveModel.py", line 4, in <module>\n    learningobjectiveModel = exec_environment(\'applications/schemeofwork/models/learningobjectiveModel.py\', request=request)\n  File "C:\\Dev\\cssow_web2py\\src\\gluon\\shell.py", line 100, in exec_environment\n    execfile(pyfile, env)\n  File "applications/schemeofwork/models/learningobjectiveModel.py", line 4, in <module>\n    learningobjectiveModel = exec_environment(\'applications/schemeofwork/models/learningobjectiveModel.py\', request=request)\n  File "C:\\Dev\\cssow_web2py\\src\\gluon\\shell.py", line 100, in exec_environment\n    execfile(pyfile, env)\n  File "applications/schemeofwork/models/learningobjectiveModel.py", line 4, in <module>\n    learningobjectiveModel = exec_environment(\'applications/schemeofwork/models/learningobjectiveModel.py\', request=request)\n  File "C:\\Dev\\cssow_web2py\\src\\gluon\\shell.py", line 100, in exec_environment\n    execfile(pyfile, env)\n  File "applications/schemeofwork/models/learningobjectiveModel.py", line 4, in <module>\n    learningobjectiveModel = exec_environment(\'applications/schemeofwork/models/learningobjectiveModel.py\', request=request)\n  File "C:\\Dev\\cssow_web2py\\src\\gluon\\shell.py", line 100, in exec_environment\n    execfile(pyfile, env)\n  File "applications/schemeofwork/models/learningobjectiveModel.py", line 4, in <module>\n    learningobjectiveModel = exec_environment(\'applications/schemeofwork/models/learningobjectiveModel.py\', request=request)\n  File "C:\\Dev\\cssow_web2py\\src\\gluon\\shell.py", line 100, in exec_environment\n    execfile(pyfile, env)\n  File "applications/schemeofwork/models/learningobjectiveModel.py", line 4, in <module>\n    learningobjectiveModel = exec_environment(\'applications/schemeofwork/models/learningobjectiveModel.py\', request=request)\n  File "C:\\Dev\\cssow_web2py\\src\\gluon\\shell.py", line 100, in exec_environment\n    execfile(pyfile, env)\n  File "applications/schemeofwork/models/learningobjectiveModel.py", line 4, in <module>\n    learningobjectiveModel = exec_environment(\'applications/schemeofwork/models/learningobjectiveModel.py\', request=request)\n  File "C:\\Dev\\cssow_web2py\\src\\gluon\\shell.py", line 100, in exec_environment\n    execfile(pyfile, env)\n  File "applications/schemeofwork/models/learningobjectiveModel.py", line 4, in <module>\n    learningobjectiveModel = exec_environment(\'applications/schemeofwork/models/learningobjectiveModel.py\', request=request)\n  File "C:\\Dev\\cssow_web2py\\src\\gluon\\shell.py", line 100, in exec_environment\n    execfile(pyfile, env)\n  File "applications/schemeofwork/models/learningobjectiveModel.py", line 4, in <module>\n    learningobjectiveModel = exec_environment(\'applications/schemeofwork/models/learningobjectiveModel.py\', request=request)\n  File "C:\\Dev\\cssow_web2py\\src\\gluon\\shell.py", line 100, in exec_environment\n    execfile(pyfile, env)\n  File "applications/schemeofwork/models/learningobjectiveModel.py", line 4, in <module>\n    learningobjectiveModel = exec_environment(\'applications/schemeofwork/models/learningobjectiveModel.py\', request=request)\n  File "C:\\Dev\\cssow_web2py\\src\\gluon\\shell.py", line 100, in exec_environment\n    execfile(pyfile, env)\n  File "applications/schemeofwork/models/learningobjectiveModel.py", line 4, in <module>\n    learningobjectiveModel = exec_environment(\'applications/schemeofwork/models/learningobjectiveModel.py\', request=request)\n  File "C:\\Dev\\cssow_web2py\\src\\gluon\\shell.py", line 100, in exec_environment\n    execfile(pyfile, env)\n  File "applications/schemeofwork/models/learningobjectiveModel.py", line 4, in <module>\n    learningobjectiveModel = exec_environment(\'applications/schemeofwork/models/learningobjectiveModel.py\', request=request)\n  File "C:\\Dev\\cssow_web2py\\src\\gluon\\shell.py", line 100, in exec_environment\n    execfile(pyfile, env)\n  File "applications/schemeofwork/models/learningobjectiveModel.py", line 4, in <module>\n    learningobjectiveModel = exec_environment(\'applications/schemeofwork/models/learningobjectiveModel.py\', request=request)\n  File "C:\\Dev\\cssow_web2py\\src\\gluon\\shell.py", line 100, in exec_environment\n    execfile(pyfile, env)\n  File "applications/schemeofwork/models/learningobjectiveModel.py", line 4, in <module>\n    learningobjectiveModel = exec_environment(\'applications/schemeofwork/models/learningobjectiveModel.py\', request=request)\n  File "C:\\Dev\\cssow_web2py\\src\\gluon\\shell.py", line 100, in exec_environment\n    execfile(pyfile, env)\n  File "applications/schemeofwork/models/learningobjectiveModel.py", line 4, in <module>\n    learningobjectiveModel = exec_environment(\'applications/schemeofwork/models/learningobjectiveModel.py\', request=request)\n  File "C:\\Dev\\cssow_web2py\\src\\gluon\\shell.py", line 100, in exec_environment\n    execfile(pyfile, env)\n  File "applications/schemeofwork/models/learningobjectiveModel.py", line 4, in <module>\n    learningobjectiveModel = exec_environment(\'applications/schemeofwork/models/learningobjectiveModel.py\', request=request)\n  File "C:\\Dev\\cssow_web2py\\src\\gluon\\shell.py", line 100, in exec_environment\n    execfile(pyfile, env)\n  File "applications/schemeofwork/models/learningobjectiveModel.py", line 4, in <module>\n    learningobjectiveModel = exec_environment(\'applications/schemeofwork/models/learningobjectiveModel.py\', request=request)\n  File "C:\\Dev\\cssow_web2py\\src\\gluon\\shell.py", line 100, in exec_environment\n    execfile(pyfile, env)\n  File "applications/schemeofwork/models/learningobjectiveModel.py", line 4, in <module>\n    learningobjectiveModel = exec_environment(\'applications/schemeofwork/models/learningobjectiveModel.py\', request=request)\n  File "C:\\Dev\\cssow_web2py\\src\\gluon\\shell.py", line 100, in exec_environment\n    execfile(pyfile, env)\n  File "applications/schemeofwork/models/learningobjectiveModel.py", line 4, in <module>\n    learningobjectiveModel = exec_environment(\'applications/schemeofwork/models/learningobjectiveModel.py\', request=request)\n  File "C:\\Dev\\cssow_web2py\\src\\gluon\\shell.py", line 100, in exec_environment\n    execfile(pyfile, env)\n  File "applications/schemeofwork/models/learningobjectiveModel.py", line 4, in <module>\n    learningobjectiveModel = exec_environment(\'applications/schemeofwork/models/learningobjectiveModel.py\', request=request)\n  File "C:\\Dev\\cssow_web2py\\src\\gluon\\shell.py", line 100, in exec_environment\n    execfile(pyfile, env)\n  File "applications/schemeofwork/models/learningobjectiveModel.py", line 4, in <module>\n    learningobjectiveModel = exec_environment(\'applications/schemeofwork/models/learningobjectiveModel.py\', request=request)\n  File "C:\\Dev\\cssow_web2py\\src\\gluon\\shell.py", line 100, in exec_environment\n    execfile(pyfile, env)\n  File "applications/schemeofwork/models/learningobjectiveModel.py", line 4, in <module>\n    learningobjectiveModel = exec_environment(\'applications/schemeofwork/models/learningobjectiveModel.py\', request=request)\n  File "C:\\Dev\\cssow_web2py\\src\\gluon\\shell.py", line 100, in exec_environment\n    execfile(pyfile, env)\n  File "applications/schemeofwork/models/learningobjectiveModel.py", line 4, in <module>\n    learningobjectiveModel = exec_environment(\'applications/schemeofwork/models/learningobjectiveModel.py\', request=request)\n  File "C:\\Dev\\cssow_web2py\\src\\gluon\\shell.py", line 100, in exec_environment\n    execfile(pyfile, env)\n  File "applications/schemeofwork/models/learningobjectiveModel.py", line 4, in <module>\n    learningobjectiveModel = exec_environment(\'applications/schemeofwork/models/learningobjectiveModel.py\', request=request)\n  File "C:\\Dev\\cssow_web2py\\src\\gluon\\shell.py", line 100, in exec_environment\n    execfile(pyfile, env)\n  File "applications/schemeofwork/models/learningobjectiveModel.py", line 4, in <module>\n    learningobjectiveModel = exec_environment(\'applications/schemeofwork/models/learningobjectiveModel.py\', request=request)\n  File "C:\\Dev\\cssow_web2py\\src\\gluon\\shell.py", line 100, in exec_environment\n    execfile(pyfile, env)\n  File "applications/schemeofwork/models/learningobjectiveModel.py", line 4, in <module>\n    learningobjectiveModel = exec_environment(\'applications/schemeofwork/models/learningobjectiveModel.py\', request=request)\n  File "C:\\Dev\\cssow_web2py\\src\\gluon\\shell.py", line 100, in exec_environment\n    execfile(pyfile, env)\n  File "applications/schemeofwork/models/learningobjectiveModel.py", line 4, in <module>\n    learningobjectiveModel = exec_environment(\'applications/schemeofwork/models/learningobjectiveModel.py\', request=request)\n  File "C:\\Dev\\cssow_web2py\\src\\gluon\\shell.py", line 100, in exec_environment\n    execfile(pyfile, env)\n  File "applications/schemeofwork/models/learningobjectiveModel.py", line 4, in <module>\n    learningobjectiveModel = exec_environment(\'applications/schemeofwork/models/learningobjectiveModel.py\', request=request)\n  File "C:\\Dev\\cssow_web2py\\src\\gluon\\shell.py", line 100, in exec_environment\n    execfile(pyfile, env)\n  File "applications/schemeofwork/models/learningobjectiveModel.py", line 4, in <module>\n    learningobjectiveModel = exec_environment(\'applications/schemeofwork/models/learningobjectiveModel.py\', request=request)\n  File "C:\\Dev\\cssow_web2py\\src\\gluon\\shell.py", line 100, in exec_environment\n    execfile(pyfile, env)\n  File "applications/schemeofwork/models/learningobjectiveModel.py", line 4, in <module>\n    learningobjectiveModel = exec_environment(\'applications/schemeofwork/models/learningobjectiveModel.py\', request=request)\n  File "C:\\Dev\\cssow_web2py\\src\\gluon\\shell.py", line 100, in exec_environment\n    execfile(pyfile, env)\n  File "applications/schemeofwork/models/learningobjectiveModel.py", line 4, in <module>\n    learningobjectiveModel = exec_environment(\'applications/schemeofwork/models/learningobjectiveModel.py\', request=request)\n  File "C:\\Dev\\cssow_web2py\\src\\gluon\\shell.py", line 100, in exec_environment\n    execfile(pyfile, env)\n  File "applications/schemeofwork/models/learningobjectiveModel.py", line 4, in <module>\n    learningobjectiveModel = exec_environment(\'applications/schemeofwork/models/learningobjectiveModel.py\', request=request)\n  File "C:\\Dev\\cssow_web2py\\src\\gluon\\shell.py", line 100, in exec_environment\n    execfile(pyfile, env)\n  File "applications/schemeofwork/models/learningobjectiveModel.py", line 4, in <module>\n    learningobjectiveModel = exec_environment(\'applications/schemeofwork/models/learningobjectiveModel.py\', request=request)\n  File "C:\\Dev\\cssow_web2py\\src\\gluon\\shell.py", line 100, in exec_environment\n    execfile(pyfile, env)\n  File "applications/schemeofwork/models/learningobjectiveModel.py", line 4, in <module>\n    learningobjectiveModel = exec_environment(\'applications/schemeofwork/models/learningobjectiveModel.py\', request=request)\n  File "C:\\Dev\\cssow_web2py\\src\\gluon\\shell.py", line 100, in exec_environment\n    execfile(pyfile, env)\n  File "applications/schemeofwork/models/learningobjectiveModel.py", line 4, in <module>\n    learningobjectiveModel = exec_environment(\'applications/schemeofwork/models/learningobjectiveModel.py\', request=request)\n  File "C:\\Dev\\cssow_web2py\\src\\gluon\\shell.py", line 100, in exec_environment\n    execfile(pyfile, env)\n  File "applications/schemeofwork/models/learningobjectiveModel.py", line 4, in <module>\n    learningobjectiveModel = exec_environment(\'applications/schemeofwork/models/learningobjectiveModel.py\', request=request)\n  File "C:\\Dev\\cssow_web2py\\src\\gluon\\shell.py", line 100, in exec_environment\n    execfile(pyfile, env)\n  File "applications/schemeofwork/models/learningobjectiveModel.py", line 4, in <module>\n    learningobjectiveModel = exec_environment(\'applications/schemeofwork/models/learningobjectiveModel.py\', request=request)\n  File "C:\\Dev\\cssow_web2py\\src\\gluon\\shell.py", line 100, in exec_environment\n    execfile(pyfile, env)\n  File "applications/schemeofwork/models/learningobjectiveModel.py", line 4, in <module>\n    learningobjectiveModel = exec_environment(\'applications/schemeofwork/models/learningobjectiveModel.py\', request=request)\n  File "C:\\Dev\\cssow_web2py\\src\\gluon\\shell.py", line 100, in exec_environment\n    execfile(pyfile, env)\n  File "applications/schemeofwork/models/learningobjectiveModel.py", line 4, in <module>\n    learningobjectiveModel = exec_environment(\'applications/schemeofwork/models/learningobjectiveModel.py\', request=request)\n  File "C:\\Dev\\cssow_web2py\\src\\gluon\\shell.py", line 100, in exec_environment\n    execfile(pyfile, env)\n  File "applications/schemeofwork/models/learningobjectiveModel.py", line 4, in <module>\n    learningobjectiveModel = exec_environment(\'applications/schemeofwork/models/learningobjectiveModel.py\', request=request)\n  File "C:\\Dev\\cssow_web2py\\src\\gluon\\shell.py", line 100, in exec_environment\n    execfile(pyfile, env)\n  File "applications/schemeofwork/models/learningobjectiveModel.py", line 4, in <module>\n    learningobjectiveModel = exec_environment(\'applications/schemeofwork/models/learningobjectiveModel.py\', request=request)\n  File "C:\\Dev\\cssow_web2py\\src\\gluon\\shell.py", line 100, in exec_environment\n    execfile(pyfile, env)\n  File "applications/schemeofwork/models/learningobjectiveModel.py", line 4, in <module>\n    learningobjectiveModel = exec_environment(\'applications/schemeofwork/models/learningobjectiveModel.py\', request=request)\n  File "C:\\Dev\\cssow_web2py\\src\\gluon\\shell.py", line 100, in exec_environment\n    execfile(pyfile, env)\n  File "applications/schemeofwork/models/learningobjectiveModel.py", line 4, in <module>\n    learningobjectiveModel = exec_environment(\'applications/schemeofwork/models/learningobjectiveModel.py\', request=request)\n  File "C:\\Dev\\cssow_web2py\\src\\gluon\\shell.py", line 100, in exec_environment\n    execfile(pyfile, env)\n  File "applications/schemeofwork/models/learningobjectiveModel.py", line 4, in <module>\n    learningobjectiveModel = exec_environment(\'applications/schemeofwork/models/learningobjectiveModel.py\', request=request)\n  File "C:\\Dev\\cssow_web2py\\src\\gluon\\shell.py", line 100, in exec_environment\n    execfile(pyfile, env)\n  File "applications/schemeofwork/models/learningobjectiveModel.py", line 4, in <module>\n    learningobjectiveModel = exec_environment(\'applications/schemeofwork/models/learningobjectiveModel.py\', request=request)\n  File "C:\\Dev\\cssow_web2py\\src\\gluon\\shell.py", line 100, in exec_environment\n    execfile(pyfile, env)\n  File "applications/schemeofwork/models/learningobjectiveModel.py", line 4, in <module>\n    learningobjectiveModel = exec_environment(\'applications/schemeofwork/models/learningobjectiveModel.py\', request=request)\n  File "C:\\Dev\\cssow_web2py\\src\\gluon\\shell.py", line 100, in exec_environment\n    execfile(pyfile, env)\n  File "applications/schemeofwork/models/learningobjectiveModel.py", line 4, in <module>\n    learningobjectiveModel = exec_environment(\'applications/schemeofwork/models/learningobjectiveModel.py\', request=request)\n  File "C:\\Dev\\cssow_web2py\\src\\gluon\\shell.py", line 100, in exec_environment\n    execfile(pyfile, env)\n  File "applications/schemeofwork/models/learningobjectiveModel.py", line 4, in <module>\n    learningobjectiveModel = exec_environment(\'applications/schemeofwork/models/learningobjectiveModel.py\', request=request)\n  File "C:\\Dev\\cssow_web2py\\src\\gluon\\shell.py", line 100, in exec_environment\n    execfile(pyfile, env)\n  File "applications/schemeofwork/models/learningobjectiveModel.py", line 4, in <module>\n    learningobjectiveModel = exec_environment(\'applications/schemeofwork/models/learningobjectiveModel.py\', request=request)\n  File "C:\\Dev\\cssow_web2py\\src\\gluon\\shell.py", line 100, in exec_environment\n    execfile(pyfile, env)\n  File "applications/schemeofwork/models/learningobjectiveModel.py", line 4, in <module>\n    learningobjectiveModel = exec_environment(\'applications/schemeofwork/models/learningobjectiveModel.py\', request=request)\n  File "C:\\Dev\\cssow_web2py\\src\\gluon\\shell.py", line 100, in exec_environment\n    execfile(pyfile, env)\n  File "applications/schemeofwork/models/learningobjectiveModel.py", line 4, in <module>\n    learningobjectiveModel = exec_environment(\'applications/schemeofwork/models/learningobjectiveModel.py\', request=request)\n  File "C:\\Dev\\cssow_web2py\\src\\gluon\\shell.py", line 100, in exec_environment\n    execfile(pyfile, env)\n  File "applications/schemeofwork/models/learningobjectiveModel.py", line 4, in <module>\n    learningobjectiveModel = exec_environment(\'applications/schemeofwork/models/learningobjectiveModel.py\', request=request)\n  File "C:\\Dev\\cssow_web2py\\src\\gluon\\shell.py", line 100, in exec_environment\n    execfile(pyfile, env)\n  File "applications/schemeofwork/models/learningobjectiveModel.py", line 4, in <module>\n    learningobjectiveModel = exec_environment(\'applications/schemeofwork/models/learningobjectiveModel.py\', request=request)\n  File "C:\\Dev\\cssow_web2py\\src\\gluon\\shell.py", line 100, in exec_environment\n    execfile(pyfile, env)\n  File "applications/schemeofwork/models/learningobjectiveModel.py", line 4, in <module>\n    learningobjectiveModel = exec_environment(\'applications/schemeofwork/models/learningobjectiveModel.py\', request=request)\n  File "C:\\Dev\\cssow_web2py\\src\\gluon\\shell.py", line 100, in exec_environment\n    execfile(pyfile, env)\n  File "applications/schemeofwork/models/learningobjectiveModel.py", line 4, in <module>\n    learningobjectiveModel = exec_environment(\'applications/schemeofwork/models/learningobjectiveModel.py\', request=request)\n  File "C:\\Dev\\cssow_web2py\\src\\gluon\\shell.py", line 100, in exec_environment\n    execfile(pyfile, env)\n  File "applications/schemeofwork/models/learningobjectiveModel.py", line 4, in <module>\n    learningobjectiveModel = exec_environment(\'applications/schemeofwork/models/learningobjectiveModel.py\', request=request)\n  File "C:\\Dev\\cssow_web2py\\src\\gluon\\shell.py", line 100, in exec_environment\n    execfile(pyfile, env)\n  File "applications/schemeofwork/models/learningobjectiveModel.py", line 4, in <module>\n    learningobjectiveModel = exec_environment(\'applications/schemeofwork/models/learningobjectiveModel.py\', request=request)\n  File "C:\\Dev\\cssow_web2py\\src\\gluon\\shell.py", line 100, in exec_environment\n    execfile(pyfile, env)\n  File "applications/schemeofwork/models/learningobjectiveModel.py", line 4, in <module>\n    learningobjectiveModel = exec_environment(\'applications/schemeofwork/models/learningobjectiveModel.py\', request=request)\n  File "C:\\Dev\\cssow_web2py\\src\\gluon\\shell.py", line 100, in exec_environment\n    execfile(pyfile, env)\n  File "applications/schemeofwork/models/learningobjectiveModel.py", line 4, in <module>\n    learningobjectiveModel = exec_environment(\'applications/schemeofwork/models/learningobjectiveModel.py\', request=request)\n  File "C:\\Dev\\cssow_web2py\\src\\gluon\\shell.py", line 100, in exec_environment\n    execfile(pyfile, env)\n  File "applications/schemeofwork/models/learningobjectiveModel.py", line 4, in <module>\n    learningobjectiveModel = exec_environment(\'applications/schemeofwork/models/learningobjectiveModel.py\', request=request)\n  File "C:\\Dev\\cssow_web2py\\src\\gluon\\shell.py", line 100, in exec_environment\n    execfile(pyfile, env)\n  File "applications/schemeofwork/models/learningobjectiveModel.py", line 4, in <module>\n    learningobjectiveModel = exec_environment(\'applications/schemeofwork/models/learningobjectiveModel.py\', request=request)\n  File "C:\\Dev\\cssow_web2py\\src\\gluon\\shell.py", line 100, in exec_environment\n    execfile(pyfile, env)\n  File "applications/schemeofwork/models/learningobjectiveModel.py", line 4, in <module>\n    learningobjectiveModel = exec_environment(\'applications/schemeofwork/models/learningobjectiveModel.py\', request=request)\n  File "C:\\Dev\\cssow_web2py\\src\\gluon\\shell.py", line 100, in exec_environment\n    execfile(pyfile, env)\n  File "applications/schemeofwork/models/learningobjectiveModel.py", line 4, in <module>\n    learningobjectiveModel = exec_environment(\'applications/schemeofwork/models/learningobjectiveModel.py\', request=request)\n  File "C:\\Dev\\cssow_web2py\\src\\gluon\\shell.py", line 100, in exec_environment\n    execfile(pyfile, env)\n  File "applications/schemeofwork/models/learningobjectiveModel.py", line 4, in <module>\n    learningobjectiveModel = exec_environment(\'applications/schemeofwork/models/learningobjectiveModel.py\', request=request)\n  File "C:\\Dev\\cssow_web2py\\src\\gluon\\shell.py", line 100, in exec_environment\n    execfile(pyfile, env)\n  File "applications/schemeofwork/models/learningobjectiveModel.py", line 4, in <module>\n    learningobjectiveModel = exec_environment(\'applications/schemeofwork/models/learningobjectiveModel.py\', request=request)\n  File "C:\\Dev\\cssow_web2py\\src\\gluon\\shell.py", line 100, in exec_environment\n    execfile(pyfile, env)\n  File "applications/schemeofwork/models/learningobjectiveModel.py", line 4, in <module>\n    learningobjectiveModel = exec_environment(\'applications/schemeofwork/models/learningobjectiveModel.py\', request=request)\n  File "C:\\Dev\\cssow_web2py\\src\\gluon\\shell.py", line 100, in exec_environment\n    execfile(pyfile, env)\n  File "applications/schemeofwork/models/learningobjectiveModel.py", line 4, in <module>\n    learningobjectiveModel = exec_environment(\'applications/schemeofwork/models/learningobjectiveModel.py\', request=request)\n  File "C:\\Dev\\cssow_web2py\\src\\gluon\\shell.py", line 100, in exec_environment\n    execfile(pyfile, env)\n  File "applications/schemeofwork/models/learningobjectiveModel.py", line 4, in <module>\n    learningobjectiveModel = exec_environment(\'applications/schemeofwork/models/learningobjectiveModel.py\', request=request)\n  File "C:\\Dev\\cssow_web2py\\src\\gluon\\shell.py", line 100, in exec_environment\n    execfile(pyfile, env)\n  File "applications/schemeofwork/models/learningobjectiveModel.py", line 4, in <module>\n    learningobjectiveModel = exec_environment(\'applications/schemeofwork/models/learningobjectiveModel.py\', request=request)\n  File "C:\\Dev\\cssow_web2py\\src\\gluon\\shell.py", line 100, in exec_environment\n    execfile(pyfile, env)\n  File "applications/schemeofwork/models/learningobjectiveModel.py", line 4, in <module>\n    learningobjectiveModel = exec_environment(\'applications/schemeofwork/models/learningobjectiveModel.py\', request=request)\n  File "C:\\Dev\\cssow_web2py\\src\\gluon\\shell.py", line 100, in exec_environment\n    execfile(pyfile, env)\n  File "applications/schemeofwork/models/learningobjectiveModel.py", line 4, in <module>\n    learningobjectiveModel = exec_environment(\'applications/schemeofwork/models/learningobjectiveModel.py\', request=request)\n  File "C:\\Dev\\cssow_web2py\\src\\gluon\\shell.py", line 100, in exec_environment\n    execfile(pyfile, env)\n  File "applications/schemeofwork/models/learningobjectiveModel.py", line 4, in <module>\n    learningobjectiveModel = exec_environment(\'applications/schemeofwork/models/learningobjectiveModel.py\', request=request)\n  File "C:\\Dev\\cssow_web2py\\src\\gluon\\shell.py", line 100, in exec_environment\n    execfile(pyfile, env)\n  File "applications/schemeofwork/models/learningobjectiveModel.py", line 4, in <module>\n    learningobjectiveModel = exec_environment(\'applications/schemeofwork/models/learningobjectiveModel.py\', request=request)\n  File "C:\\Dev\\cssow_web2py\\src\\gluon\\shell.py", line 100, in exec_environment\n    execfile(pyfile, env)\n  File "applications/schemeofwork/models/learningobjectiveModel.py", line 4, in <module>\n    learningobjectiveModel = exec_environment(\'applications/schemeofwork/models/learningobjectiveModel.py\', request=request)\n  File "C:\\Dev\\cssow_web2py\\src\\gluon\\shell.py", line 100, in exec_environment\n    execfile(pyfile, env)\n  File "applications/schemeofwork/models/learningobjectiveModel.py", line 4, in <module>\n    learningobjectiveModel = exec_environment(\'applications/schemeofwork/models/learningobjectiveModel.py\', request=request)\n  File "C:\\Dev\\cssow_web2py\\src\\gluon\\shell.py", line 100, in exec_environment\n    execfile(pyfile, env)\n  File "applications/schemeofwork/models/learningobjectiveModel.py", line 4, in <module>\n    learningobjectiveModel = exec_environment(\'applications/schemeofwork/models/learningobjectiveModel.py\', request=request)\n  File "C:\\Dev\\cssow_web2py\\src\\gluon\\shell.py", line 100, in exec_environment\n    execfile(pyfile, env)\n  File "applications/schemeofwork/models/learningobjectiveModel.py", line 4, in <module>\n    learningobjectiveModel = exec_environment(\'applications/schemeofwork/models/learningobjectiveModel.py\', request=request)\n  File "C:\\Dev\\cssow_web2py\\src\\gluon\\shell.py", line 100, in exec_environment\n    execfile(pyfile, env)\n  File "applications/schemeofwork/models/learningobjectiveModel.py", line 4, in <module>\n    learningobjectiveModel = exec_environment(\'applications/schemeofwork/models/learningobjectiveModel.py\', request=request)\n  File "C:\\Dev\\cssow_web2py\\src\\gluon\\shell.py", line 100, in exec_environment\n    execfile(pyfile, env)\n  File "applications/schemeofwork/models/learningobjectiveModel.py", line 4, in <module>\n    learningobjectiveModel = exec_environment(\'applications/schemeofwork/models/learningobjectiveModel.py\', request=request)\n  File "C:\\Dev\\cssow_web2py\\src\\gluon\\shell.py", line 100, in exec_environment\n    execfile(pyfile, env)\n  File "applications/schemeofwork/models/learningobjectiveModel.py", line 4, in <module>\n    learningobjectiveModel = exec_environment(\'applications/schemeofwork/models/learningobjectiveModel.py\', request=request)\n  File "C:\\Dev\\cssow_web2py\\src\\gluon\\shell.py", line 100, in exec_environment\n    execfile(pyfile, env)\n  File "applications/schemeofwork/models/learningobjectiveModel.py", line 4, in <module>\n    learningobjectiveModel = exec_environment(\'applications/schemeofwork/models/learningobjectiveModel.py\', request=request)\n  File "C:\\Dev\\cssow_web2py\\src\\gluon\\shell.py", line 100, in exec_environment\n    execfile(pyfile, env)\n  File "applications/schemeofwork/models/learningobjectiveModel.py", line 4, in <module>\n    learningobjectiveModel = exec_environment(\'applications/schemeofwork/models/learningobjectiveModel.py\', request=request)\n  File "C:\\Dev\\cssow_web2py\\src\\gluon\\shell.py", line 100, in exec_environment\n    execfile(pyfile, env)\n  File "applications/schemeofwork/models/learningobjectiveModel.py", line 4, in <module>\n    learningobjectiveModel = exec_environment(\'applications/schemeofwork/models/learningobjectiveModel.py\', request=request)\n  File "C:\\Dev\\cssow_web2py\\src\\gluon\\shell.py", line 100, in exec_environment\n    execfile(pyfile, env)\n  File "applications/schemeofwork/models/learningobjectiveModel.py", line 4, in <module>\n    learningobjectiveModel = exec_environment(\'applications/schemeofwork/models/learningobjectiveModel.py\', request=request)\n  File "C:\\Dev\\cssow_web2py\\src\\gluon\\shell.py", line 100, in exec_environment\n    execfile(pyfile, env)\n  File "applications/schemeofwork/models/learningobjectiveModel.py", line 4, in <module>\n    learningobjectiveModel = exec_environment(\'applications/schemeofwork/models/learningobjectiveModel.py\', request=request)\n  File "C:\\Dev\\cssow_web2py\\src\\gluon\\shell.py", line 100, in exec_environment\n    execfile(pyfile, env)\n  File "applications/schemeofwork/models/learningobjectiveModel.py", line 4, in <module>\n    learningobjectiveModel = exec_environment(\'applications/schemeofwork/models/learningobjectiveModel.py\', request=request)\n  File "C:\\Dev\\cssow_web2py\\src\\gluon\\shell.py", line 100, in exec_environment\n    execfile(pyfile, env)\n  File "applications/schemeofwork/models/learningobjectiveModel.py", line 4, in <module>\n    learningobjectiveModel = exec_environment(\'applications/schemeofwork/models/learningobjectiveModel.py\', request=request)\n  File "C:\\Dev\\cssow_web2py\\src\\gluon\\shell.py", line 100, in exec_environment\n    execfile(pyfile, env)\n  File "applications/schemeofwork/models/learningobjectiveModel.py", line 4, in <module>\n    learningobjectiveModel = exec_environment(\'applications/schemeofwork/models/learningobjectiveModel.py\', request=request)\n  File "C:\\Dev\\cssow_web2py\\src\\gluon\\shell.py", line 100, in exec_environment\n    execfile(pyfile, env)\n  File "applications/schemeofwork/models/learningobjectiveModel.py", line 4, in <module>\n    learningobjectiveModel = exec_environment(\'applications/schemeofwork/models/learningobjectiveModel.py\', request=request)\n  File "C:\\Dev\\cssow_web2py\\src\\gluon\\shell.py", line 100, in exec_environment\n    execfile(pyfile, env)\n  File "applications/schemeofwork/models/learningobjectiveModel.py", line 4, in <module>\n    learningobjectiveModel = exec_environment(\'applications/schemeofwork/models/learningobjectiveModel.py\', request=request)\n  File "C:\\Dev\\cssow_web2py\\src\\gluon\\shell.py", line 100, in exec_environment\n    execfile(pyfile, env)\n  File "applications/schemeofwork/models/learningobjectiveModel.py", line 4, in <module>\n    learningobjectiveModel = exec_environment(\'applications/schemeofwork/models/learningobjectiveModel.py\', request=request)\n  File "C:\\Dev\\cssow_web2py\\src\\gluon\\shell.py", line 100, in exec_environment\n    execfile(pyfile, env)\n  File "applications/schemeofwork/models/learningobjectiveModel.py", line 4, in <module>\n    learningobjectiveModel = exec_environment(\'applications/schemeofwork/models/learningobjectiveModel.py\', request=request)\n  File "C:\\Dev\\cssow_web2py\\src\\gluon\\shell.py", line 100, in exec_environment\n    execfile(pyfile, env)\n  File "applications/schemeofwork/models/learningobjectiveModel.py", line 4, in <module>\n    learningobjectiveModel = exec_environment(\'applications/schemeofwork/models/learningobjectiveModel.py\', request=request)\n  File "C:\\Dev\\cssow_web2py\\src\\gluon\\shell.py", line 100, in exec_environment\n    execfile(pyfile, env)\n  File "applications/schemeofwork/models/learningobjectiveModel.py", line 4, in <module>\n    learningobjectiveModel = exec_environment(\'applications/schemeofwork/models/learningobjectiveModel.py\', request=request)\n  File "C:\\Dev\\cssow_web2py\\src\\gluon\\shell.py", line 100, in exec_environment\n    execfile(pyfile, env)\n  File "applications/schemeofwork/models/learningobjectiveModel.py", line 4, in <module>\n    learningobjectiveModel = exec_environment(\'applications/schemeofwork/models/learningobjectiveModel.py\', request=request)\n  File "C:\\Dev\\cssow_web2py\\src\\gluon\\shell.py", line 100, in exec_environment\n    execfile(pyfile, env)\n  File "applications/schemeofwork/models/learningobjectiveModel.py", line 4, in <module>\n    learningobjectiveModel = exec_environment(\'applications/schemeofwork/models/learningobjectiveModel.py\', request=request)\n  File "C:\\Dev\\cssow_web2py\\src\\gluon\\shell.py", line 100, in exec_environment\n    execfile(pyfile, env)\n  File "applications/schemeofwork/models/learningobjectiveModel.py", line 4, in <module>\n    learningobjectiveModel = exec_environment(\'applications/schemeofwork/models/learningobjectiveModel.py\', request=request)\n  File "C:\\Dev\\cssow_web2py\\src\\gluon\\shell.py", line 100, in exec_environment\n    execfile(pyfile, env)\n  File "applications/schemeofwork/models/learningobjectiveModel.py", line 4, in <module>\n    learningobjectiveModel = exec_environment(\'applications/schemeofwork/models/learningobjectiveModel.py\', request=request)\n  File "C:\\Dev\\cssow_web2py\\src\\gluon\\shell.py", line 100, in exec_environment\n    execfile(pyfile, env)\n  File "applications/schemeofwork/models/learningobjectiveModel.py", line 4, in <module>\n    learningobjectiveModel = exec_environment(\'applications/schemeofwork/models/learningobjectiveModel.py\', request=request)\n  File "C:\\Dev\\cssow_web2py\\src\\gluon\\shell.py", line 100, in exec_environment\n    execfile(pyfile, env)\n  File "applications/schemeofwork/models/learningobjectiveModel.py", line 4, in <module>\n    learningobjectiveModel = exec_environment(\'applications/schemeofwork/models/learningobjectiveModel.py\', request=request)\n  File "C:\\Dev\\cssow_web2py\\src\\gluon\\shell.py", line 100, in exec_environment\n    execfile(pyfile, env)\n  File "applications/schemeofwork/models/learningobjectiveModel.py", line 4, in <module>\n    learningobjectiveModel = exec_environment(\'applications/schemeofwork/models/learningobjectiveModel.py\', request=request)\n  File "C:\\Dev\\cssow_web2py\\src\\gluon\\shell.py", line 100, in exec_environment\n    execfile(pyfile, env)\n  File "applications/schemeofwork/models/learningobjectiveModel.py", line 4, in <module>\n    learningobjectiveModel = exec_environment(\'applications/schemeofwork/models/learningobjectiveModel.py\', request=request)\n  File "C:\\Dev\\cssow_web2py\\src\\gluon\\shell.py", line 100, in exec_environment\n    execfile(pyfile, env)\n  File "applications/schemeofwork/models/learningobjectiveModel.py", line 4, in <module>\n    learningobjectiveModel = exec_environment(\'applications/schemeofwork/models/learningobjectiveModel.py\', request=request)\n  File "C:\\Dev\\cssow_web2py\\src\\gluon\\shell.py", line 100, in exec_environment\n    execfile(pyfile, env)\n  File "applications/schemeofwork/models/learningobjectiveModel.py", line 4, in <module>\n    learningobjectiveModel = exec_environment(\'applications/schemeofwork/models/learningobjectiveModel.py\', request=request)\n  File "C:\\Dev\\cssow_web2py\\src\\gluon\\shell.py", line 100, in exec_environment\n    execfile(pyfile, env)\n  File "applications/schemeofwork/models/learningobjectiveModel.py", line 4, in <module>\n    learningobjectiveModel = exec_environment(\'applications/schemeofwork/models/learningobjectiveModel.py\', request=request)\n  File "C:\\Dev\\cssow_web2py\\src\\gluon\\shell.py", line 100, in exec_environment\n    execfile(pyfile, env)\n  File "applications/schemeofwork/models/learningobjectiveModel.py", line 4, in <module>\n    learningobjectiveModel = exec_environment(\'applications/schemeofwork/models/learningobjectiveModel.py\', request=request)\n  File "C:\\Dev\\cssow_web2py\\src\\gluon\\shell.py", line 100, in exec_environment\n    execfile(pyfile, env)\n  File "applications/schemeofwork/models/learningobjectiveModel.py", line 4, in <module>\n    learningobjectiveModel = exec_environment(\'applications/schemeofwork/models/learningobjectiveModel.py\', request=request)\n  File "C:\\Dev\\cssow_web2py\\src\\gluon\\shell.py", line 100, in exec_environment\n    execfile(pyfile, env)\n  File "applications/schemeofwork/models/learningobjectiveModel.py", line 4, in <module>\n    learningobjectiveModel = exec_environment(\'applications/schemeofwork/models/learningobjectiveModel.py\', request=request)\n  File "C:\\Dev\\cssow_web2py\\src\\gluon\\shell.py", line 100, in exec_environment\n    execfile(pyfile, env)\n  File "applications/schemeofwork/models/learningobjectiveModel.py", line 4, in <module>\n    learningobjectiveModel = exec_environment(\'applications/schemeofwork/models/learningobjectiveModel.py\', request=request)\n  File "C:\\Dev\\cssow_web2py\\src\\gluon\\shell.py", line 100, in exec_environment\n    execfile(pyfile, env)\n  File "applications/schemeofwork/models/learningobjectiveModel.py", line 4, in <module>\n    learningobjectiveModel = exec_environment(\'applications/schemeofwork/models/learningobjectiveModel.py\', request=request)\n  File "C:\\Dev\\cssow_web2py\\src\\gluon\\shell.py", line 100, in exec_environment\n    execfile(pyfile, env)\n  File "applications/schemeofwork/models/learningobjectiveModel.py", line 4, in <module>\n    learningobjectiveModel = exec_environment(\'applications/schemeofwork/models/learningobjectiveModel.py\', request=request)\n  File "C:\\Dev\\cssow_web2py\\src\\gluon\\shell.py", line 100, in exec_environment\n    execfile(pyfile, env)\n  File "applications/schemeofwork/models/learningobjectiveModel.py", line 4, in <module>\n    learningobjectiveModel = exec_environment(\'applications/schemeofwork/models/learningobjectiveModel.py\', request=request)\n  File "C:\\Dev\\cssow_web2py\\src\\gluon\\shell.py", line 100, in exec_environment\n    execfile(pyfile, env)\n  File "applications/schemeofwork/models/learningobjectiveModel.py", line 4, in <module>\n    learningobjectiveModel = exec_environment(\'applications/schemeofwork/models/learningobjectiveModel.py\', request=request)\n  File "C:\\Dev\\cssow_web2py\\src\\gluon\\shell.py", line 100, in exec_environment\n    execfile(pyfile, env)\n  File "applications/schemeofwork/models/learningobjectiveModel.py", line 4, in <module>\n    learningobjectiveModel = exec_environment(\'applications/schemeofwork/models/learningobjectiveModel.py\', request=request)\n  File "C:\\Dev\\cssow_web2py\\src\\gluon\\shell.py", line 100, in exec_environment\n    execfile(pyfile, env)\n  File "applications/schemeofwork/models/learningobjectiveModel.py", line 4, in <module>\n    learningobjectiveModel = exec_environment(\'applications/schemeofwork/models/learningobjectiveModel.py\', request=request)\n  File "C:\\Dev\\cssow_web2py\\src\\gluon\\shell.py", line 100, in exec_environment\n    execfile(pyfile, env)\n  File "applications/schemeofwork/models/learningobjectiveModel.py", line 4, in <module>\n    learningobjectiveModel = exec_environment(\'applications/schemeofwork/models/learningobjectiveModel.py\', request=request)\n  File "C:\\Dev\\cssow_web2py\\src\\gluon\\shell.py", line 100, in exec_environment\n    execfile(pyfile, env)\n  File "applications/schemeofwork/models/learningobjectiveModel.py", line 4, in <module>\n    learningobjectiveModel = exec_environment(\'applications/schemeofwork/models/learningobjectiveModel.py\', request=request)\n  File "C:\\Dev\\cssow_web2py\\src\\gluon\\shell.py", line 100, in exec_environment\n    execfile(pyfile, env)\n  File "applications/schemeofwork/models/learningobjectiveModel.py", line 4, in <module>\n    learningobjectiveModel = exec_environment(\'applications/schemeofwork/models/learningobjectiveModel.py\', request=request)\n  File "C:\\Dev\\cssow_web2py\\src\\gluon\\shell.py", line 100, in exec_environment\n    execfile(pyfile, env)\n  File "applications/schemeofwork/models/learningobjectiveModel.py", line 4, in <module>\n    learningobjectiveModel = exec_environment(\'applications/schemeofwork/models/learningobjectiveModel.py\', request=request)\n  File "C:\\Dev\\cssow_web2py\\src\\gluon\\shell.py", line 100, in exec_environment\n    execfile(pyfile, env)\n  File "applications/schemeofwork/models/learningobjectiveModel.py", line 4, in <module>\n    learningobjectiveModel = exec_environment(\'applications/schemeofwork/models/learningobjectiveModel.py\', request=request)\n  File "C:\\Dev\\cssow_web2py\\src\\gluon\\shell.py", line 100, in exec_environment\n    execfile(pyfile, env)\n  File "applications/schemeofwork/models/learningobjectiveModel.py", line 4, in <module>\n    learningobjectiveModel = exec_environment(\'applications/schemeofwork/models/learningobjectiveModel.py\', request=request)\n  File "C:\\Dev\\cssow_web2py\\src\\gluon\\shell.py", line 100, in exec_environment\n    execfile(pyfile, env)\n  File "applications/schemeofwork/models/learningobjectiveModel.py", line 4, in <module>\n    learningobjectiveModel = exec_environment(\'applications/schemeofwork/models/learningobjectiveModel.py\', request=request)\n  File "C:\\Dev\\cssow_web2py\\src\\gluon\\shell.py", line 100, in exec_environment\n    execfile(pyfile, env)\n  File "applications/schemeofwork/models/learningobjectiveModel.py", line 4, in <module>\n    learningobjectiveModel = exec_environment(\'applications/schemeofwork/models/learningobjectiveModel.py\', request=request)\n  File "C:\\Dev\\cssow_web2py\\src\\gluon\\shell.py", line 100, in exec_environment\n    execfile(pyfile, env)\n  File "applications/schemeofwork/models/learningobjectiveModel.py", line 4, in <module>\n    learningobjectiveModel = exec_environment(\'applications/schemeofwork/models/learningobjectiveModel.py\', request=request)\n  File "C:\\Dev\\cssow_web2py\\src\\gluon\\shell.py", line 100, in exec_environment\n    execfile(pyfile, env)\n  File "applications/schemeofwork/models/learningobjectiveModel.py", line 4, in <module>\n    learningobjectiveModel = exec_environment(\'applications/schemeofwork/models/learningobjectiveModel.py\', request=request)\n  File "C:\\Dev\\cssow_web2py\\src\\gluon\\shell.py", line 100, in exec_environment\n    execfile(pyfile, env)\n  File "applications/schemeofwork/models/learningobjectiveModel.py", line 4, in <module>\n    learningobjectiveModel = exec_environment(\'applications/schemeofwork/models/learningobjectiveModel.py\', request=request)\n  File "C:\\Dev\\cssow_web2py\\src\\gluon\\shell.py", line 100, in exec_environment\n    execfile(pyfile, env)\n  File "applications/schemeofwork/models/learningobjectiveModel.py", line 4, in <module>\n    learningobjectiveModel = exec_environment(\'applications/schemeofwork/models/learningobjectiveModel.py\', request=request)\n  File "C:\\Dev\\cssow_web2py\\src\\gluon\\shell.py", line 100, in exec_environment\n    execfile(pyfile, env)\n  File "applications/schemeofwork/models/learningobjectiveModel.py", line 4, in <module>\n    learningobjectiveModel = exec_environment(\'applications/schemeofwork/models/learningobjectiveModel.py\', request=request)\n  File "C:\\Dev\\cssow_web2py\\src\\gluon\\shell.py", line 100, in exec_environment\n    execfile(pyfile, env)\n  File "applications/schemeofwork/models/learningobjectiveModel.py", line 4, in <module>\n    learningobjectiveModel = exec_environment(\'applications/schemeofwork/models/learningobjectiveModel.py\', request=request)\n  File "C:\\Dev\\cssow_web2py\\src\\gluon\\shell.py", line 100, in exec_environment\n    execfile(pyfile, env)\n  File "applications/schemeofwork/models/learningobjectiveModel.py", line 4, in <module>\n    learningobjectiveModel = exec_environment(\'applications/schemeofwork/models/learningobjectiveModel.py\', request=request)\n  File "C:\\Dev\\cssow_web2py\\src\\gluon\\shell.py", line 100, in exec_environment\n    execfile(pyfile, env)\n  File "applications/schemeofwork/models/learningobjectiveModel.py", line 4, in <module>\n    learningobjectiveModel = exec_environment(\'applications/schemeofwork/models/learningobjectiveModel.py\', request=request)\n  File "C:\\Dev\\cssow_web2py\\src\\gluon\\shell.py", line 100, in exec_environment\n    execfile(pyfile, env)\n  File "applications/schemeofwork/models/learningobjectiveModel.py", line 4, in <module>\n    learningobjectiveModel = exec_environment(\'applications/schemeofwork/models/learningobjectiveModel.py\', request=request)\n  File "C:\\Dev\\cssow_web2py\\src\\gluon\\shell.py", line 100, in exec_environment\n    execfile(pyfile, env)\n  File "applications/schemeofwork/models/learningobjectiveModel.py", line 4, in <module>\n    learningobjectiveModel = exec_environment(\'applications/schemeofwork/models/learningobjectiveModel.py\', request=request)\n  File "C:\\Dev\\cssow_web2py\\src\\gluon\\shell.py", line 100, in exec_environment\n    execfile(pyfile, env)\n  File "applications/schemeofwork/models/learningobjectiveModel.py", line 4, in <module>\n    learningobjectiveModel = exec_environment(\'applications/schemeofwork/models/learningobjectiveModel.py\', request=request)\n  File "C:\\Dev\\cssow_web2py\\src\\gluon\\shell.py", line 100, in exec_environment\n    execfile(pyfile, env)\n  File "applications/schemeofwork/models/learningobjectiveModel.py", line 4, in <module>\n    learningobjectiveModel = exec_environment(\'applications/schemeofwork/models/learningobjectiveModel.py\', request=request)\n  File "C:\\Dev\\cssow_web2py\\src\\gluon\\shell.py", line 100, in exec_environment\n    execfile(pyfile, env)\n  File "applications/schemeofwork/models/learningobjectiveModel.py", line 4, in <module>\n    learningobjectiveModel = exec_environment(\'applications/schemeofwork/models/learningobjectiveModel.py\', request=request)\n  File "C:\\Dev\\cssow_web2py\\src\\gluon\\shell.py", line 100, in exec_environment\n    execfile(pyfile, env)\n  File "applications/schemeofwork/models/learningobjectiveModel.py", line 4, in <module>\n    learningobjectiveModel = exec_environment(\'applications/schemeofwork/models/learningobjectiveModel.py\', request=request)\n  File "C:\\Dev\\cssow_web2py\\src\\gluon\\shell.py", line 100, in exec_environment\n    execfile(pyfile, env)\n  File "applications/schemeofwork/models/learningobjectiveModel.py", line 4, in <module>\n    learningobjectiveModel = exec_environment(\'applications/schemeofwork/models/learningobjectiveModel.py\', request=request)\n  File "C:\\Dev\\cssow_web2py\\src\\gluon\\shell.py", line 100, in exec_environment\n    execfile(pyfile, env)\n  File "applications/schemeofwork/models/learningobjectiveModel.py", line 4, in <module>\n    learningobjectiveModel = exec_environment(\'applications/schemeofwork/models/learningobjectiveModel.py\', request=request)\n  File "C:\\Dev\\cssow_web2py\\src\\gluon\\shell.py", line 100, in exec_environment\n    execfile(pyfile, env)\n  File "applications/schemeofwork/models/learningobjectiveModel.py", line 4, in <module>\n    learningobjectiveModel = exec_environment(\'applications/schemeofwork/models/learningobjectiveModel.py\', request=request)\n  File "C:\\Dev\\cssow_web2py\\src\\gluon\\shell.py", line 100, in exec_environment\n    execfile(pyfile, env)\n  File "applications/schemeofwork/models/learningobjectiveModel.py", line 4, in <module>\n    learningobjectiveModel = exec_environment(\'applications/schemeofwork/models/learningobjectiveModel.py\', request=request)\n  File "C:\\Dev\\cssow_web2py\\src\\gluon\\shell.py", line 100, in exec_environment\n    execfile(pyfile, env)\n  File "applications/schemeofwork/models/learningobjectiveModel.py", line 4, in <module>\n    learningobjectiveModel = exec_environment(\'applications/schemeofwork/models/learningobjectiveModel.py\', request=request)\n  File "C:\\Dev\\cssow_web2py\\src\\gluon\\shell.py", line 100, in exec_environment\n    execfile(pyfile, env)\n  File "applications/schemeofwork/models/learningobjectiveModel.py", line 4, in <module>\n    learningobjectiveModel = exec_environment(\'applications/schemeofwork/models/learningobjectiveModel.py\', request=request)\n  File "C:\\Dev\\cssow_web2py\\src\\gluon\\shell.py", line 100, in exec_environment\n    execfile(pyfile, env)\n  File "applications/schemeofwork/models/learningobjectiveModel.py", line 4, in <module>\n    learningobjectiveModel = exec_environment(\'applications/schemeofwork/models/learningobjectiveModel.py\', request=request)\n  File "C:\\Dev\\cssow_web2py\\src\\gluon\\shell.py", line 100, in exec_environment\n    execfile(pyfile, env)\n  File "applications/schemeofwork/models/learningobjectiveModel.py", line 4, in <module>\n    learningobjectiveModel = exec_environment(\'applications/schemeofwork/models/learningobjectiveModel.py\', request=request)\n  File "C:\\Dev\\cssow_web2py\\src\\gluon\\shell.py", line 100, in exec_environment\n    execfile(pyfile, env)\n  File "applications/schemeofwork/models/learningobjectiveModel.py", line 4, in <module>\n    learningobjectiveModel = exec_environment(\'applications/schemeofwork/models/learningobjectiveModel.py\', request=request)\n  File "C:\\Dev\\cssow_web2py\\src\\gluon\\shell.py", line 100, in exec_environment\n    execfile(pyfile, env)\n  File "applications/schemeofwork/models/learningobjectiveModel.py", line 4, in <module>\n    learningobjectiveModel = exec_environment(\'applications/schemeofwork/models/learningobjectiveModel.py\', request=request)\n  File "C:\\Dev\\cssow_web2py\\src\\gluon\\shell.py", line 100, in exec_environment\n    execfile(pyfile, env)\n  File "applications/schemeofwork/models/learningobjectiveModel.py", line 4, in <module>\n    learningobjectiveModel = exec_environment(\'applications/schemeofwork/models/learningobjectiveModel.py\', request=request)\n  File "C:\\Dev\\cssow_web2py\\src\\gluon\\shell.py", line 100, in exec_environment\n    execfile(pyfile, env)\n  File "applications/schemeofwork/models/learningobjectiveModel.py", line 4, in <module>\n    learningobjectiveModel = exec_environment(\'applications/schemeofwork/models/learningobjectiveModel.py\', request=request)\n  File "C:\\Dev\\cssow_web2py\\src\\gluon\\shell.py", line 100, in exec_environment\n    execfile(pyfile, env)\n  File "applications/schemeofwork/models/learningobjectiveModel.py", line 4, in <module>\n    learningobjectiveModel = exec_environment(\'applications/schemeofwork/models/learningobjectiveModel.py\', request=request)\n  File "C:\\Dev\\cssow_web2py\\src\\gluon\\shell.py", line 100, in exec_environment\n    execfile(pyfile, env)\n  File "applications/schemeofwork/models/learningobjectiveModel.py", line 4, in <module>\n    learningobjectiveModel = exec_environment(\'applications/schemeofwork/models/learningobjectiveModel.py\', request=request)\n  File "C:\\Dev\\cssow_web2py\\src\\gluon\\shell.py", line 100, in exec_environment\n    execfile(pyfile, env)\n  File "applications/schemeofwork/models/learningobjectiveModel.py", line 4, in <module>\n    learningobjectiveModel = exec_environment(\'applications/schemeofwork/models/learningobjectiveModel.py\', request=request)\n  File "C:\\Dev\\cssow_web2py\\src\\gluon\\shell.py", line 100, in exec_environment\n    execfile(pyfile, env)\n  File "applications/schemeofwork/models/learningobjectiveModel.py", line 4, in <module>\n    learningobjectiveModel = exec_environment(\'applications/schemeofwork/models/learningobjectiveModel.py\', request=request)\n  File "C:\\Dev\\cssow_web2py\\src\\gluon\\shell.py", line 100, in exec_environment\n    execfile(pyfile, env)\n  File "applications/schemeofwork/models/learningobjectiveModel.py", line 4, in <module>\n    learningobjectiveModel = exec_environment(\'applications/schemeofwork/models/learningobjectiveModel.py\', request=request)\n  File "C:\\Dev\\cssow_web2py\\src\\gluon\\shell.py", line 100, in exec_environment\n    execfile(pyfile, env)\n  File "applications/schemeofwork/models/learningobjectiveModel.py", line 4, in <module>\n    learningobjectiveModel = exec_environment(\'applications/schemeofwork/models/learningobjectiveModel.py\', request=request)\n  File "C:\\Dev\\cssow_web2py\\src\\gluon\\shell.py", line 100, in exec_environment\n    execfile(pyfile, env)\n  File "applications/schemeofwork/models/learningobjectiveModel.py", line 4, in <module>\n    learningobjectiveModel = exec_environment(\'applications/schemeofwork/models/learningobjectiveModel.py\', request=request)\n  File "C:\\Dev\\cssow_web2py\\src\\gluon\\shell.py", line 100, in exec_environment\n    execfile(pyfile, env)\n  File "applications/schemeofwork/models/learningobjectiveModel.py", line 4, in <module>\n    learningobjectiveModel = exec_environment(\'applications/schemeofwork/models/learningobjectiveModel.py\', request=request)\n  File "C:\\Dev\\cssow_web2py\\src\\gluon\\shell.py", line 100, in exec_environment\n    execfile(pyfile, env)\n  File "applications/schemeofwork/models/learningobjectiveModel.py", line 4, in <module>\n    learningobjectiveModel = exec_environment(\'applications/schemeofwork/models/learningobjectiveModel.py\', request=request)\n  File "C:\\Dev\\cssow_web2py\\src\\gluon\\shell.py", line 100, in exec_environment\n    execfile(pyfile, env)\n  File "applications/schemeofwork/models/learningobjectiveModel.py", line 4, in <module>\n    learningobjectiveModel = exec_environment(\'applications/schemeofwork/models/learningobjectiveModel.py\', request=request)\n  File "C:\\Dev\\cssow_web2py\\src\\gluon\\shell.py", line 100, in exec_environment\n    execfile(pyfile, env)\n  File "applications/schemeofwork/models/learningobjectiveModel.py", line 4, in <module>\n    learningobjectiveModel = exec_environment(\'applications/schemeofwork/models/learningobjectiveModel.py\', request=request)\n  File "C:\\Dev\\cssow_web2py\\src\\gluon\\shell.py", line 100, in exec_environment\n    execfile(pyfile, env)\n  File "applications/schemeofwork/models/learningobjectiveModel.py", line 4, in <module>\n    learningobjectiveModel = exec_environment(\'applications/schemeofwork/models/learningobjectiveModel.py\', request=request)\n  File "C:\\Dev\\cssow_web2py\\src\\gluon\\shell.py", line 100, in exec_environment\n    execfile(pyfile, env)\n  File "applications/schemeofwork/models/learningobjectiveModel.py", line 4, in <module>\n    learningobjectiveModel = exec_environment(\'applications/schemeofwork/models/learningobjectiveModel.py\', request=request)\n  File "C:\\Dev\\cssow_web2py\\src\\gluon\\shell.py", line 100, in exec_environment\n    execfile(pyfile, env)\n  File "applications/schemeofwork/models/learningobjectiveModel.py", line 4, in <module>\n    learningobjectiveModel = exec_environment(\'applications/schemeofwork/models/learningobjectiveModel.py\', request=request)\n  File "C:\\Dev\\cssow_web2py\\src\\gluon\\shell.py", line 100, in exec_environment\n    execfile(pyfile, env)\n  File "applications/schemeofwork/models/learningobjectiveModel.py", line 4, in <module>\n    learningobjectiveModel = exec_environment(\'applications/schemeofwork/models/learningobjectiveModel.py\', request=request)\n  File "C:\\Dev\\cssow_web2py\\src\\gluon\\shell.py", line 100, in exec_environment\n    execfile(pyfile, env)\n  File "applications/schemeofwork/models/learningobjectiveModel.py", line 4, in <module>\n    learningobjectiveModel = exec_environment(\'applications/schemeofwork/models/learningobjectiveModel.py\', request=request)\n  File "C:\\Dev\\cssow_web2py\\src\\gluon\\shell.py", line 100, in exec_environment\n    execfile(pyfile, env)\n  File "applications/schemeofwork/models/learningobjectiveModel.py", line 4, in <module>\n    learningobjectiveModel = exec_environment(\'applications/schemeofwork/models/learningobjectiveModel.py\', request=request)\n  File "C:\\Dev\\cssow_web2py\\src\\gluon\\shell.py", line 100, in exec_environment\n    execfile(pyfile, env)\n  File "applications/schemeofwork/models/learningobjectiveModel.py", line 4, in <module>\n    learningobjectiveModel = exec_environment(\'applications/schemeofwork/models/learningobjectiveModel.py\', request=request)\n  File "C:\\Dev\\cssow_web2py\\src\\gluon\\shell.py", line 100, in exec_environment\n    execfile(pyfile, env)\n  File "applications/schemeofwork/models/learningobjectiveModel.py", line 4, in <module>\n    learningobjectiveModel = exec_environment(\'applications/schemeofwork/models/learningobjectiveModel.py\', request=request)\n  File "C:\\Dev\\cssow_web2py\\src\\gluon\\shell.py", line 100, in exec_environment\n    execfile(pyfile, env)\n  File "applications/schemeofwork/models/learningobjectiveModel.py", line 4, in <module>\n    learningobjectiveModel = exec_environment(\'applications/schemeofwork/models/learningobjectiveModel.py\', request=request)\n  File "C:\\Dev\\cssow_web2py\\src\\gluon\\shell.py", line 100, in exec_environment\n    execfile(pyfile, env)\n  File "applications/schemeofwork/models/learningobjectiveModel.py", line 4, in <module>\n    learningobjectiveModel = exec_environment(\'applications/schemeofwork/models/learningobjectiveModel.py\', request=request)\n  File "C:\\Dev\\cssow_web2py\\src\\gluon\\shell.py", line 100, in exec_environment\n    execfile(pyfile, env)\n  File "applications/schemeofwork/models/learningobjectiveModel.py", line 4, in <module>\n    learningobjectiveModel = exec_environment(\'applications/schemeofwork/models/learningobjectiveModel.py\', request=request)\n  File "C:\\Dev\\cssow_web2py\\src\\gluon\\shell.py", line 100, in exec_environment\n    execfile(pyfile, env)\n  File "applications/schemeofwork/models/learningobjectiveModel.py", line 4, in <module>\n    learningobjectiveModel = exec_environment(\'applications/schemeofwork/models/learningobjectiveModel.py\', request=request)\n  File "C:\\Dev\\cssow_web2py\\src\\gluon\\shell.py", line 100, in exec_environment\n    execfile(pyfile, env)\n  File "applications/schemeofwork/models/learningobjectiveModel.py", line 4, in <module>\n    learningobjectiveModel = exec_environment(\'applications/schemeofwork/models/learningobjectiveModel.py\', request=request)\n  File "C:\\Dev\\cssow_web2py\\src\\gluon\\shell.py", line 100, in exec_environment\n    execfile(pyfile, env)\n  File "applications/schemeofwork/models/learningobjectiveModel.py", line 4, in <module>\n    learningobjectiveModel = exec_environment(\'applications/schemeofwork/models/learningobjectiveModel.py\', request=request)\n  File "C:\\Dev\\cssow_web2py\\src\\gluon\\shell.py", line 100, in exec_environment\n    execfile(pyfile, env)\n  File "applications/schemeofwork/models/learningobjectiveModel.py", line 4, in <module>\n    learningobjectiveModel = exec_environment(\'applications/schemeofwork/models/learningobjectiveModel.py\', request=request)\n  File "C:\\Dev\\cssow_web2py\\src\\gluon\\shell.py", line 100, in exec_environment\n    execfile(pyfile, env)\n  File "applications/schemeofwork/models/learningobjectiveModel.py", line 4, in <module>\n    learningobjectiveModel = exec_environment(\'applications/schemeofwork/models/learningobjectiveModel.py\', request=request)\n  File "C:\\Dev\\cssow_web2py\\src\\gluon\\shell.py", line 100, in exec_environment\n    execfile(pyfile, env)\n  File "applications/schemeofwork/models/learningobjectiveModel.py", line 4, in <module>\n    learningobjectiveModel = exec_environment(\'applications/schemeofwork/models/learningobjectiveModel.py\', request=request)\n  File "C:\\Dev\\cssow_web2py\\src\\gluon\\shell.py", line 100, in exec_environment\n    execfile(pyfile, env)\n  File "applications/schemeofwork/models/learningobjectiveModel.py", line 4, in <module>\n    learningobjectiveModel = exec_environment(\'applications/schemeofwork/models/learningobjectiveModel.py\', request=request)\n  File "C:\\Dev\\cssow_web2py\\src\\gluon\\shell.py", line 100, in exec_environment\n    execfile(pyfile, env)\n  File "applications/schemeofwork/models/learningobjectiveModel.py", line 4, in <module>\n    learningobjectiveModel = exec_environment(\'applications/schemeofwork/models/learningobjectiveModel.py\', request=request)\n  File "C:\\Dev\\cssow_web2py\\src\\gluon\\shell.py", line 100, in exec_environment\n    execfile(pyfile, env)\n  File "applications/schemeofwork/models/learningobjectiveModel.py", line 4, in <module>\n    learningobjectiveModel = exec_environment(\'applications/schemeofwork/models/learningobjectiveModel.py\', request=request)\n  File "C:\\Dev\\cssow_web2py\\src\\gluon\\shell.py", line 100, in exec_environment\n    execfile(pyfile, env)\n  File "applications/schemeofwork/models/learningobjectiveModel.py", line 4, in <module>\n    learningobjectiveModel = exec_environment(\'applications/schemeofwork/models/learningobjectiveModel.py\', request=request)\n  File "C:\\Dev\\cssow_web2py\\src\\gluon\\shell.py", line 100, in exec_environment\n    execfile(pyfile, env)\n  File "applications/schemeofwork/models/learningobjectiveModel.py", line 4, in <module>\n    learningobjectiveModel = exec_environment(\'applications/schemeofwork/models/learningobjectiveModel.py\', request=request)\n  File "C:\\Dev\\cssow_web2py\\src\\gluon\\shell.py", line 100, in exec_environment\n    execfile(pyfile, env)\n  File "applications/schemeofwork/models/learningobjectiveModel.py", line 4, in <module>\n    learningobjectiveModel = exec_environment(\'applications/schemeofwork/models/learningobjectiveModel.py\', request=request)\n  File "C:\\Dev\\cssow_web2py\\src\\gluon\\shell.py", line 100, in exec_environment\n    execfile(pyfile, env)\n  File "applications/schemeofwork/models/learningobjectiveModel.py", line 4, in <module>\n    learningobjectiveModel = exec_environment(\'applications/schemeofwork/models/learningobjectiveModel.py\', request=request)\n  File "C:\\Dev\\cssow_web2py\\src\\gluon\\shell.py", line 100, in exec_environment\n    execfile(pyfile, env)\n  File "applications/schemeofwork/models/learningobjectiveModel.py", line 4, in <module>\n    learningobjectiveModel = exec_environment(\'applications/schemeofwork/models/learningobjectiveModel.py\', request=request)\n  File "C:\\Dev\\cssow_web2py\\src\\gluon\\shell.py", line 100, in exec_environment\n    execfile(pyfile, env)\n  File "applications/schemeofwork/models/learningobjectiveModel.py", line 4, in <module>\n    learningobjectiveModel = exec_environment(\'applications/schemeofwork/models/learningobjectiveModel.py\', request=request)\n  File "C:\\Dev\\cssow_web2py\\src\\gluon\\shell.py", line 100, in exec_environment\n    execfile(pyfile, env)\n  File "applications/schemeofwork/models/learningobjectiveModel.py", line 4, in <module>\n    learningobjectiveModel = exec_environment(\'applications/schemeofwork/models/learningobjectiveModel.py\', request=request)\n  File "C:\\Dev\\cssow_web2py\\src\\gluon\\shell.py", line 100, in exec_environment\n    execfile(pyfile, env)\n  File "applications/schemeofwork/models/learningobjectiveModel.py", line 4, in <module>\n    learningobjectiveModel = exec_environment(\'applications/schemeofwork/models/learningobjectiveModel.py\', request=request)\n  File "C:\\Dev\\cssow_web2py\\src\\gluon\\shell.py", line 100, in exec_environment\n    execfile(pyfile, env)\n  File "applications/schemeofwork/models/learningobjectiveModel.py", line 4, in <module>\n    learningobjectiveModel = exec_environment(\'applications/schemeofwork/models/learningobjectiveModel.py\', request=request)\n  File "C:\\Dev\\cssow_web2py\\src\\gluon\\shell.py", line 100, in exec_environment\n    execfile(pyfile, env)\n  File "applications/schemeofwork/models/learningobjectiveModel.py", line 4, in <module>\n    learningobjectiveModel = exec_environment(\'applications/schemeofwork/models/learningobjectiveModel.py\', request=request)\n  File "C:\\Dev\\cssow_web2py\\src\\gluon\\shell.py", line 100, in exec_environment\n    execfile(pyfile, env)\n  File "applications/schemeofwork/models/learningobjectiveModel.py", line 4, in <module>\n    learningobjectiveModel = exec_environment(\'applications/schemeofwork/models/learningobjectiveModel.py\', request=request)\n  File "C:\\Dev\\cssow_web2py\\src\\gluon\\shell.py", line 100, in exec_environment\n    execfile(pyfile, env)\n  File "applications/schemeofwork/models/learningobjectiveModel.py", line 4, in <module>\n    learningobjectiveModel = exec_environment(\'applications/schemeofwork/models/learningobjectiveModel.py\', request=request)\n  File "C:\\Dev\\cssow_web2py\\src\\gluon\\shell.py", line 100, in exec_environment\n    execfile(pyfile, env)\n  File "applications/schemeofwork/models/learningobjectiveModel.py", line 4, in <module>\n    learningobjectiveModel = exec_environment(\'applications/schemeofwork/models/learningobjectiveModel.py\', request=request)\n  File "C:\\Dev\\cssow_web2py\\src\\gluon\\shell.py", line 100, in exec_environment\n    execfile(pyfile, env)\n  File "applications/schemeofwork/models/learningobjectiveModel.py", line 4, in <module>\n    learningobjectiveModel = exec_environment(\'applications/schemeofwork/models/learningobjectiveModel.py\', request=request)\n  File "C:\\Dev\\cssow_web2py\\src\\gluon\\shell.py", line 100, in exec_environment\n    execfile(pyfile, env)\n  File "applications/schemeofwork/models/learningobjectiveModel.py", line 4, in <module>\n    learningobjectiveModel = exec_environment(\'applications/schemeofwork/models/learningobjectiveModel.py\', request=request)\n  File "C:\\Dev\\cssow_web2py\\src\\gluon\\shell.py", line 100, in exec_environment\n    execfile(pyfile, env)\n  File "applications/schemeofwork/models/learningobjectiveModel.py", line 4, in <module>\n    learningobjectiveModel = exec_environment(\'applications/schemeofwork/models/learningobjectiveModel.py\', request=request)\n  File "C:\\Dev\\cssow_web2py\\src\\gluon\\shell.py", line 100, in exec_environment\n    execfile(pyfile, env)\n  File "applications/schemeofwork/models/learningobjectiveModel.py", line 4, in <module>\n    learningobjectiveModel = exec_environment(\'applications/schemeofwork/models/learningobjectiveModel.py\', request=request)\n  File "C:\\Dev\\cssow_web2py\\src\\gluon\\shell.py", line 100, in exec_environment\n    execfile(pyfile, env)\n  File "applications/schemeofwork/models/learningobjectiveModel.py", line 4, in <module>\n    learningobjectiveModel = exec_environment(\'applications/schemeofwork/models/learningobjectiveModel.py\', request=request)\n  File "C:\\Dev\\cssow_web2py\\src\\gluon\\shell.py", line 100, in exec_environment\n    execfile(pyfile, env)\n  File "applications/schemeofwork/models/learningobjectiveModel.py", line 4, in <module>\n    learningobjectiveModel = exec_environment(\'applications/schemeofwork/models/learningobjectiveModel.py\', request=request)\n  File "C:\\Dev\\cssow_web2py\\src\\gluon\\shell.py", line 100, in exec_environment\n    execfile(pyfile, env)\n  File "applications/schemeofwork/models/learningobjectiveModel.py", line 4, in <module>\n    learningobjectiveModel = exec_environment(\'applications/schemeofwork/models/learningobjectiveModel.py\', request=request)\n  File "C:\\Dev\\cssow_web2py\\src\\gluon\\shell.py", line 100, in exec_environment\n    execfile(pyfile, env)\n  File "applications/schemeofwork/models/learningobjectiveModel.py", line 4, in <module>\n    learningobjectiveModel = exec_environment(\'applications/schemeofwork/models/learningobjectiveModel.py\', request=request)\n  File "C:\\Dev\\cssow_web2py\\src\\gluon\\shell.py", line 100, in exec_environment\n    execfile(pyfile, env)\n  File "applications/schemeofwork/models/learningobjectiveModel.py", line 4, in <module>\n    learningobjectiveModel = exec_environment(\'applications/schemeofwork/models/learningobjectiveModel.py\', request=request)\n  File "C:\\Dev\\cssow_web2py\\src\\gluon\\shell.py", line 100, in exec_environment\n    execfile(pyfile, env)\n  File "applications/schemeofwork/models/learningobjectiveModel.py", line 4, in <module>\n    learningobjectiveModel = exec_environment(\'applications/schemeofwork/models/learningobjectiveModel.py\', request=request)\n  File "C:\\Dev\\cssow_web2py\\src\\gluon\\shell.py", line 100, in exec_environment\n    execfile(pyfile, env)\n  File "applications/schemeofwork/models/learningobjectiveModel.py", line 4, in <module>\n    learningobjectiveModel = exec_environment(\'applications/schemeofwork/models/learningobjectiveModel.py\', request=request)\n  File "C:\\Dev\\cssow_web2py\\src\\gluon\\shell.py", line 100, in exec_environment\n    execfile(pyfile, env)\n  File "applications/schemeofwork/models/learningobjectiveModel.py", line 4, in <module>\n    learningobjectiveModel = exec_environment(\'applications/schemeofwork/models/learningobjectiveModel.py\', request=request)\n  File "C:\\Dev\\cssow_web2py\\src\\gluon\\shell.py", line 100, in exec_environment\n    execfile(pyfile, env)\n  File "applications/schemeofwork/models/learningobjectiveModel.py", line 4, in <module>\n    learningobjectiveModel = exec_environment(\'applications/schemeofwork/models/learningobjectiveModel.py\', request=request)\n  File "C:\\Dev\\cssow_web2py\\src\\gluon\\shell.py", line 100, in exec_environment\n    execfile(pyfile, env)\n  File "applications/schemeofwork/models/learningobjectiveModel.py", line 4, in <module>\n    learningobjectiveModel = exec_environment(\'applications/schemeofwork/models/learningobjectiveModel.py\', request=request)\n  File "C:\\Dev\\cssow_web2py\\src\\gluon\\shell.py", line 100, in exec_environment\n    execfile(pyfile, env)\n  File "applications/schemeofwork/models/learningobjectiveModel.py", line 4, in <module>\n    learningobjectiveModel = exec_environment(\'applications/schemeofwork/models/learningobjectiveModel.py\', request=request)\n  File "C:\\Dev\\cssow_web2py\\src\\gluon\\shell.py", line 100, in exec_environment\n    execfile(pyfile, env)\n  File "applications/schemeofwork/models/learningobjectiveModel.py", line 4, in <module>\n    learningobjectiveModel = exec_environment(\'applications/schemeofwork/models/learningobjectiveModel.py\', request=request)\n  File "C:\\Dev\\cssow_web2py\\src\\gluon\\shell.py", line 100, in exec_environment\n    execfile(pyfile, env)\n  File "applications/schemeofwork/models/learningobjectiveModel.py", line 4, in <module>\n    learningobjectiveModel = exec_environment(\'applications/schemeofwork/models/learningobjectiveModel.py\', request=request)\n  File "C:\\Dev\\cssow_web2py\\src\\gluon\\shell.py", line 100, in exec_environment\n    execfile(pyfile, env)\n  File "applications/schemeofwork/models/learningobjectiveModel.py", line 4, in <module>\n    learningobjectiveModel = exec_environment(\'applications/schemeofwork/models/learningobjectiveModel.py\', request=request)\n  File "C:\\Dev\\cssow_web2py\\src\\gluon\\shell.py", line 100, in exec_environment\n    execfile(pyfile, env)\n  File "applications/schemeofwork/models/learningobjectiveModel.py", line 4, in <module>\n    learningobjectiveModel = exec_environment(\'applications/schemeofwork/models/learningobjectiveModel.py\', request=request)\n  File "C:\\Dev\\cssow_web2py\\src\\gluon\\shell.py", line 100, in exec_environment\n    execfile(pyfile, env)\n  File "applications/schemeofwork/models/learningobjectiveModel.py", line 4, in <module>\n    learningobjectiveModel = exec_environment(\'applications/schemeofwork/models/learningobjectiveModel.py\', request=request)\n  File "C:\\Dev\\cssow_web2py\\src\\gluon\\shell.py", line 100, in exec_environment\n    execfile(pyfile, env)\n  File "applications/schemeofwork/models/learningobjectiveModel.py", line 4, in <module>\n    learningobjectiveModel = exec_environment(\'applications/schemeofwork/models/learningobjectiveModel.py\', request=request)\n  File "C:\\Dev\\cssow_web2py\\src\\gluon\\shell.py", line 100, in exec_environment\n    execfile(pyfile, env)\n  File "applications/schemeofwork/models/learningobjectiveModel.py", line 4, in <module>\n    learningobjectiveModel = exec_environment(\'applications/schemeofwork/models/learningobjectiveModel.py\', request=request)\n  File "C:\\Dev\\cssow_web2py\\src\\gluon\\shell.py", line 100, in exec_environment\n    execfile(pyfile, env)\n  File "applications/schemeofwork/models/learningobjectiveModel.py", line 4, in <module>\n    learningobjectiveModel = exec_environment(\'applications/schemeofwork/models/learningobjectiveModel.py\', request=request)\n  File "C:\\Dev\\cssow_web2py\\src\\gluon\\shell.py", line 100, in exec_environment\n    execfile(pyfile, env)\n  File "applications/schemeofwork/models/learningobjectiveModel.py", line 4, in <module>\n    learningobjectiveModel = exec_environment(\'applications/schemeofwork/models/learningobjectiveModel.py\', request=request)\n  File "C:\\Dev\\cssow_web2py\\src\\gluon\\shell.py", line 100, in exec_environment\n    execfile(pyfile, env)\n  File "applications/schemeofwork/models/learningobjectiveModel.py", line 4, in <module>\n    learningobjectiveModel = exec_environment(\'applications/schemeofwork/models/learningobjectiveModel.py\', request=request)\n  File "C:\\Dev\\cssow_web2py\\src\\gluon\\shell.py", line 100, in exec_environment\n    execfile(pyfile, env)\n  File "applications/schemeofwork/models/learningobjectiveModel.py", line 4, in <module>\n    learningobjectiveModel = exec_environment(\'applications/schemeofwork/models/learningobjectiveModel.py\', request=request)\n  File "C:\\Dev\\cssow_web2py\\src\\gluon\\shell.py", line 100, in exec_environment\n    execfile(pyfile, env)\n  File "applications/schemeofwork/models/learningobjectiveModel.py", line 4, in <module>\n    learningobjectiveModel = exec_environment(\'applications/schemeofwork/models/learningobjectiveModel.py\', request=request)\n  File "C:\\Dev\\cssow_web2py\\src\\gluon\\shell.py", line 100, in exec_environment\n    execfile(pyfile, env)\n  File "applications/schemeofwork/models/learningobjectiveModel.py", line 4, in <module>\n    learningobjectiveModel = exec_environment(\'applications/schemeofwork/models/learningobjectiveModel.py\', request=request)\n  File "C:\\Dev\\cssow_web2py\\src\\gluon\\shell.py", line 100, in exec_environment\n    execfile(pyfile, env)\n  File "applications/schemeofwork/models/learningobjectiveModel.py", line 4, in <module>\n    learningobjectiveModel = exec_environment(\'applications/schemeofwork/models/learningobjectiveModel.py\', request=request)\n  File "C:\\Dev\\cssow_web2py\\src\\gluon\\shell.py", line 100, in exec_environment\n    execfile(pyfile, env)\n  File "applications/schemeofwork/models/learningobjectiveModel.py", line 4, in <module>\n    learningobjectiveModel = exec_environment(\'applications/schemeofwork/models/learningobjectiveModel.py\', request=request)\n  File "C:\\Dev\\cssow_web2py\\src\\gluon\\shell.py", line 100, in exec_environment\n    execfile(pyfile, env)\n  File "applications/schemeofwork/models/learningobjectiveModel.py", line 4, in <module>\n    learningobjectiveModel = exec_environment(\'applications/schemeofwork/models/learningobjectiveModel.py\', request=request)\n  File "C:\\Dev\\cssow_web2py\\src\\gluon\\shell.py", line 100, in exec_environment\n    execfile(pyfile, env)\n  File "applications/schemeofwork/models/learningobjectiveModel.py", line 4, in <module>\n    learningobjectiveModel = exec_environment(\'applications/schemeofwork/models/learningobjectiveModel.py\', request=request)\n  File "C:\\Dev\\cssow_web2py\\src\\gluon\\shell.py", line 100, in exec_environment\n    execfile(pyfile, env)\n  File "applications/schemeofwork/models/learningobjectiveModel.py", line 4, in <module>\n    learningobjectiveModel = exec_environment(\'applications/schemeofwork/models/learningobjectiveModel.py\', request=request)\n  File "C:\\Dev\\cssow_web2py\\src\\gluon\\shell.py", line 100, in exec_environment\n    execfile(pyfile, env)\n  File "applications/schemeofwork/models/learningobjectiveModel.py", line 4, in <module>\n    learningobjectiveModel = exec_environment(\'applications/schemeofwork/models/learningobjectiveModel.py\', request=request)\n  File "C:\\Dev\\cssow_web2py\\src\\gluon\\shell.py", line 100, in exec_environment\n    execfile(pyfile, env)\n  File "applications/schemeofwork/models/learningobjectiveModel.py", line 4, in <module>\n    learningobjectiveModel = exec_environment(\'applications/schemeofwork/models/learningobjectiveModel.py\', request=request)\n  File "C:\\Dev\\cssow_web2py\\src\\gluon\\shell.py", line 100, in exec_environment\n    execfile(pyfile, env)\n  File "applications/schemeofwork/models/learningobjectiveModel.py", line 4, in <module>\n    learningobjectiveModel = exec_environment(\'applications/schemeofwork/models/learningobjectiveModel.py\', request=request)\n  File "C:\\Dev\\cssow_web2py\\src\\gluon\\shell.py", line 100, in exec_environment\n    execfile(pyfile, env)\n  File "applications/schemeofwork/models/learningobjectiveModel.py", line 4, in <module>\n    learningobjectiveModel = exec_environment(\'applications/schemeofwork/models/learningobjectiveModel.py\', request=request)\n  File "C:\\Dev\\cssow_web2py\\src\\gluon\\shell.py", line 100, in exec_environment\n    execfile(pyfile, env)\n  File "applications/schemeofwork/models/learningobjectiveModel.py", line 4, in <module>\n    learningobjectiveModel = exec_environment(\'applications/schemeofwork/models/learningobjectiveModel.py\', request=request)\n  File "C:\\Dev\\cssow_web2py\\src\\gluon\\shell.py", line 100, in exec_environment\n    execfile(pyfile, env)\n  File "applications/schemeofwork/models/learningobjectiveModel.py", line 4, in <module>\n    learningobjectiveModel = exec_environment(\'applications/schemeofwork/models/learningobjectiveModel.py\', request=request)\n  File "C:\\Dev\\cssow_web2py\\src\\gluon\\shell.py", line 100, in exec_environment\n    execfile(pyfile, env)\n  File "applications/schemeofwork/models/learningobjectiveModel.py", line 4, in <module>\n    learningobjectiveModel = exec_environment(\'applications/schemeofwork/models/learningobjectiveModel.py\', request=request)\n  File "C:\\Dev\\cssow_web2py\\src\\gluon\\shell.py", line 100, in exec_environment\n    execfile(pyfile, env)\n  File "applications/schemeofwork/models/learningobjectiveModel.py", line 4, in <module>\n    learningobjectiveModel = exec_environment(\'applications/schemeofwork/models/learningobjectiveModel.py\', request=request)\n  File "C:\\Dev\\cssow_web2py\\src\\gluon\\shell.py", line 100, in exec_environment\n    execfile(pyfile, env)\n  File "applications/schemeofwork/models/learningobjectiveModel.py", line 4, in <module>\n    learningobjectiveModel = exec_environment(\'applications/schemeofwork/models/learningobjectiveModel.py\', request=request)\n  File "C:\\Dev\\cssow_web2py\\src\\gluon\\shell.py", line 100, in exec_environment\n    execfile(pyfile, env)\n  File "applications/schemeofwork/models/learningobjectiveModel.py", line 4, in <module>\n    learningobjectiveModel = exec_environment(\'applications/schemeofwork/models/learningobjectiveModel.py\', request=request)\n  File "C:\\Dev\\cssow_web2py\\src\\gluon\\shell.py", line 100, in exec_environment\n    execfile(pyfile, env)\n  File "applications/schemeofwork/models/learningobjectiveModel.py", line 4, in <module>\n    learningobjectiveModel = exec_environment(\'applications/schemeofwork/models/learningobjectiveModel.py\', request=request)\n  File "C:\\Dev\\cssow_web2py\\src\\gluon\\shell.py", line 100, in exec_environment\n    execfile(pyfile, env)\n  File "applications/schemeofwork/models/learningobjectiveModel.py", line 4, in <module>\n    learningobjectiveModel = exec_environment(\'applications/schemeofwork/models/learningobjectiveModel.py\', request=request)\n  File "C:\\Dev\\cssow_web2py\\src\\gluon\\shell.py", line 100, in exec_environment\n    execfile(pyfile, env)\n  File "applications/schemeofwork/models/learningobjectiveModel.py", line 4, in <module>\n    learningobjectiveModel = exec_environment(\'applications/schemeofwork/models/learningobjectiveModel.py\', request=request)\n  File "C:\\Dev\\cssow_web2py\\src\\gluon\\shell.py", line 100, in exec_environment\n    execfile(pyfile, env)\n  File "applications/schemeofwork/models/learningobjectiveModel.py", line 4, in <module>\n    learningobjectiveModel = exec_environment(\'applications/schemeofwork/models/learningobjectiveModel.py\', request=request)\n  File "C:\\Dev\\cssow_web2py\\src\\gluon\\shell.py", line 100, in exec_environment\n    execfile(pyfile, env)\n  File "applications/schemeofwork/models/learningobjectiveModel.py", line 4, in <module>\n    learningobjectiveModel = exec_environment(\'applications/schemeofwork/models/learningobjectiveModel.py\', request=request)\n  File "C:\\Dev\\cssow_web2py\\src\\gluon\\shell.py", line 100, in exec_environment\n    execfile(pyfile, env)\n  File "applications/schemeofwork/models/learningobjectiveModel.py", line 4, in <module>\n    learningobjectiveModel = exec_environment(\'applications/schemeofwork/models/learningobjectiveModel.py\', request=request)\n  File "C:\\Dev\\cssow_web2py\\src\\gluon\\shell.py", line 100, in exec_environment\n    execfile(pyfile, env)\n  File "applications/schemeofwork/models/learningobjectiveModel.py", line 4, in <module>\n    learningobjectiveModel = exec_environment(\'applications/schemeofwork/models/learningobjectiveModel.py\', request=request)\n  File "C:\\Dev\\cssow_web2py\\src\\gluon\\shell.py", line 100, in exec_environment\n    execfile(pyfile, env)\n  File "applications/schemeofwork/models/learningobjectiveModel.py", line 4, in <module>\n    learningobjectiveModel = exec_environment(\'applications/schemeofwork/models/learningobjectiveModel.py\', request=request)\n  File "C:\\Dev\\cssow_web2py\\src\\gluon\\shell.py", line 100, in exec_environment\n    execfile(pyfile, env)\n  File "applications/schemeofwork/models/learningobjectiveModel.py", line 4, in <module>\n    learningobjectiveModel = exec_environment(\'applications/schemeofwork/models/learningobjectiveModel.py\', request=request)\n  File "C:\\Dev\\cssow_web2py\\src\\gluon\\shell.py", line 100, in exec_environment\n    execfile(pyfile, env)\n  File "applications/schemeofwork/models/learningobjectiveModel.py", line 4, in <module>\n    learningobjectiveModel = exec_environment(\'applications/schemeofwork/models/learningobjectiveModel.py\', request=request)\n  File "C:\\Dev\\cssow_web2py\\src\\gluon\\shell.py", line 100, in exec_environment\n    execfile(pyfile, env)\n  File "applications/schemeofwork/models/learningobjectiveModel.py", line 4, in <module>\n    learningobjectiveModel = exec_environment(\'applications/schemeofwork/models/learningobjectiveModel.py\', request=request)\n  File "C:\\Dev\\cssow_web2py\\src\\gluon\\shell.py", line 100, in exec_environment\n    execfile(pyfile, env)\n  File "applications/schemeofwork/models/learningobjectiveModel.py", line 4, in <module>\n    learningobjectiveModel = exec_environment(\'applications/schemeofwork/models/learningobjectiveModel.py\', request=request)\n  File "C:\\Dev\\cssow_web2py\\src\\gluon\\shell.py", line 100, in exec_environment\n    execfile(pyfile, env)\n  File "applications/schemeofwork/models/learningobjectiveModel.py", line 4, in <module>\n    learningobjectiveModel = exec_environment(\'applications/schemeofwork/models/learningobjectiveModel.py\', request=request)\n  File "C:\\Dev\\cssow_web2py\\src\\gluon\\shell.py", line 100, in exec_environment\n    execfile(pyfile, env)\n  File "applications/schemeofwork/models/learningobjectiveModel.py", line 4, in <module>\n    learningobjectiveModel = exec_environment(\'applications/schemeofwork/models/learningobjectiveModel.py\', request=request)\n  File "C:\\Dev\\cssow_web2py\\src\\gluon\\shell.py", line 100, in exec_environment\n    execfile(pyfile, env)\n  File "applications/schemeofwork/models/learningobjectiveModel.py", line 4, in <module>\n    learningobjectiveModel = exec_environment(\'applications/schemeofwork/models/learningobjectiveModel.py\', request=request)\n  File "C:\\Dev\\cssow_web2py\\src\\gluon\\shell.py", line 100, in exec_environment\n    execfile(pyfile, env)\n  File "applications/schemeofwork/models/learningobjectiveModel.py", line 4, in <module>\n    learningobjectiveModel = exec_environment(\'applications/schemeofwork/models/learningobjectiveModel.py\', request=request)\n  File "C:\\Dev\\cssow_web2py\\src\\gluon\\shell.py", line 100, in exec_environment\n    execfile(pyfile, env)\n  File "applications/schemeofwork/models/learningobjectiveModel.py", line 4, in <module>\n    learningobjectiveModel = exec_environment(\'applications/schemeofwork/models/learningobjectiveModel.py\', request=request)\n  File "C:\\Dev\\cssow_web2py\\src\\gluon\\shell.py", line 100, in exec_environment\n    execfile(pyfile, env)\n  File "applications/schemeofwork/models/learningobjectiveModel.py", line 4, in <module>\n    learningobjectiveModel = exec_environment(\'applications/schemeofwork/models/learningobjectiveModel.py\', request=request)\n  File "C:\\Dev\\cssow_web2py\\src\\gluon\\shell.py", line 100, in exec_environment\n    execfile(pyfile, env)\n  File "applications/schemeofwork/models/learningobjectiveModel.py", line 4, in <module>\n    learningobjectiveModel = exec_environment(\'applications/schemeofwork/models/learningobjectiveModel.py\', request=request)\n  File "C:\\Dev\\cssow_web2py\\src\\gluon\\shell.py", line 100, in exec_environment\n    execfile(pyfile, env)\n  File "applications/schemeofwork/models/learningobjectiveModel.py", line 4, in <module>\n    learningobjectiveModel = exec_environment(\'applications/schemeofwork/models/learningobjectiveModel.py\', request=request)\n  File "C:\\Dev\\cssow_web2py\\src\\gluon\\shell.py", line 100, in exec_environment\n    execfile(pyfile, env)\n  File "applications/schemeofwork/models/learningobjectiveModel.py", line 4, in <module>\n    learningobjectiveModel = exec_environment(\'applications/schemeofwork/models/learningobjectiveModel.py\', request=request)\n  File "C:\\Dev\\cssow_web2py\\src\\gluon\\shell.py", line 100, in exec_environment\n    execfile(pyfile, env)\n  File "applications/schemeofwork/models/learningobjectiveModel.py", line 4, in <module>\n    learningobjectiveModel = exec_environment(\'applications/schemeofwork/models/learningobjectiveModel.py\', request=request)\n  File "C:\\Dev\\cssow_web2py\\src\\gluon\\shell.py", line 100, in exec_environment\n    execfile(pyfile, env)\n  File "applications/schemeofwork/models/learningobjectiveModel.py", line 4, in <module>\n    learningobjectiveModel = exec_environment(\'applications/schemeofwork/models/learningobjectiveModel.py\', request=request)\n  File "C:\\Dev\\cssow_web2py\\src\\gluon\\shell.py", line 100, in exec_environment\n    execfile(pyfile, env)\n  File "applications/schemeofwork/models/learningobjectiveModel.py", line 4, in <module>\n    learningobjectiveModel = exec_environment(\'applications/schemeofwork/models/learningobjectiveModel.py\', request=request)\n  File "C:\\Dev\\cssow_web2py\\src\\gluon\\shell.py", line 100, in exec_environment\n    execfile(pyfile, env)\n  File "applications/schemeofwork/models/learningobjectiveModel.py", line 4, in <module>\n    learningobjectiveModel = exec_environment(\'applications/schemeofwork/models/learningobjectiveModel.py\', request=request)\n  File "C:\\Dev\\cssow_web2py\\src\\gluon\\shell.py", line 100, in exec_environment\n    execfile(pyfile, env)\n  File "applications/schemeofwork/models/learningobjectiveModel.py", line 4, in <module>\n    learningobjectiveModel = exec_environment(\'applications/schemeofwork/models/learningobjectiveModel.py\', request=request)\n  File "C:\\Dev\\cssow_web2py\\src\\gluon\\shell.py", line 100, in exec_environment\n    execfile(pyfile, env)\n  File "applications/schemeofwork/models/learningobjectiveModel.py", line 4, in <module>\n    learningobjectiveModel = exec_environment(\'applications/schemeofwork/models/learningobjectiveModel.py\', request=request)\n  File "C:\\Dev\\cssow_web2py\\src\\gluon\\shell.py", line 100, in exec_environment\n    execfile(pyfile, env)\n  File "applications/schemeofwork/models/learningobjectiveModel.py", line 4, in <module>\n    learningobjectiveModel = exec_environment(\'applications/schemeofwork/models/learningobjectiveModel.py\', request=request)\n  File "C:\\Dev\\cssow_web2py\\src\\gluon\\shell.py", line 100, in exec_environment\n    execfile(pyfile, env)\n  File "applications/schemeofwork/models/learningobjectiveModel.py", line 4, in <module>\n    learningobjectiveModel = exec_environment(\'applications/schemeofwork/models/learningobjectiveModel.py\', request=request)\n  File "C:\\Dev\\cssow_web2py\\src\\gluon\\shell.py", line 100, in exec_environment\n    execfile(pyfile, env)\n  File "applications/schemeofwork/models/learningobjectiveModel.py", line 4, in <module>\n    learningobjectiveModel = exec_environment(\'applications/schemeofwork/models/learningobjectiveModel.py\', request=request)\n  File "C:\\Dev\\cssow_web2py\\src\\gluon\\shell.py", line 100, in exec_environment\n    execfile(pyfile, env)\n  File "applications/schemeofwork/models/learningobjectiveModel.py", line 4, in <module>\n    learningobjectiveModel = exec_environment(\'applications/schemeofwork/models/learningobjectiveModel.py\', request=request)\n  File "C:\\Dev\\cssow_web2py\\src\\gluon\\shell.py", line 100, in exec_environment\n    execfile(pyfile, env)\n  File "applications/schemeofwork/models/learningobjectiveModel.py", line 4, in <module>\n    learningobjectiveModel = exec_environment(\'applications/schemeofwork/models/learningobjectiveModel.py\', request=request)\n  File "C:\\Dev\\cssow_web2py\\src\\gluon\\shell.py", line 100, in exec_environment\n    execfile(pyfile, env)\n  File "applications/schemeofwork/models/learningobjectiveModel.py", line 4, in <module>\n    learningobjectiveModel = exec_environment(\'applications/schemeofwork/models/learningobjectiveModel.py\', request=request)\n  File "C:\\Dev\\cssow_web2py\\src\\gluon\\shell.py", line 100, in exec_environment\n    execfile(pyfile, env)\n  File "applications/schemeofwork/models/learningobjectiveModel.py", line 4, in <module>\n    learningobjectiveModel = exec_environment(\'applications/schemeofwork/models/learningobjectiveModel.py\', request=request)\n  File "C:\\Dev\\cssow_web2py\\src\\gluon\\shell.py", line 100, in exec_environment\n    execfile(pyfile, env)\n  File "applications/schemeofwork/models/learningobjectiveModel.py", line 4, in <module>\n    learningobjectiveModel = exec_environment(\'applications/schemeofwork/models/learningobjectiveModel.py\', request=request)\n  File "C:\\Dev\\cssow_web2py\\src\\gluon\\shell.py", line 100, in exec_environment\n    execfile(pyfile, env)\n  File "applications/schemeofwork/models/learningobjectiveModel.py", line 4, in <module>\n    learningobjectiveModel = exec_environment(\'applications/schemeofwork/models/learningobjectiveModel.py\', request=request)\n  File "C:\\Dev\\cssow_web2py\\src\\gluon\\shell.py", line 100, in exec_environment\n    execfile(pyfile, env)\n  File "applications/schemeofwork/models/learningobjectiveModel.py", line 4, in <module>\n    learningobjectiveModel = exec_environment(\'applications/schemeofwork/models/learningobjectiveModel.py\', request=request)\n  File "C:\\Dev\\cssow_web2py\\src\\gluon\\shell.py", line 100, in exec_environment\n    execfile(pyfile, env)\n  File "applications/schemeofwork/models/learningobjectiveModel.py", line 4, in <module>\n    learningobjectiveModel = exec_environment(\'applications/schemeofwork/models/learningobjectiveModel.py\', request=request)\n  File "C:\\Dev\\cssow_web2py\\src\\gluon\\shell.py", line 100, in exec_environment\n    execfile(pyfile, env)\n  File "applications/schemeofwork/models/learningobjectiveModel.py", line 4, in <module>\n    learningobjectiveModel = exec_environment(\'applications/schemeofwork/models/learningobjectiveModel.py\', request=request)\n  File "C:\\Dev\\cssow_web2py\\src\\gluon\\shell.py", line 100, in exec_environment\n    execfile(pyfile, env)\n  File "applications/schemeofwork/models/learningobjectiveModel.py", line 4, in <module>\n    learningobjectiveModel = exec_environment(\'applications/schemeofwork/models/learningobjectiveModel.py\', request=request)\n  File "C:\\Dev\\cssow_web2py\\src\\gluon\\shell.py", line 100, in exec_environment\n    execfile(pyfile, env)\n  File "applications/schemeofwork/models/learningobjectiveModel.py", line 4, in <module>\n    learningobjectiveModel = exec_environment(\'applications/schemeofwork/models/learningobjectiveModel.py\', request=request)\n  File "C:\\Dev\\cssow_web2py\\src\\gluon\\shell.py", line 100, in exec_environment\n    execfile(pyfile, env)\n  File "applications/schemeofwork/models/learningobjectiveModel.py", line 4, in <module>\n    learningobjectiveModel = exec_environment(\'applications/schemeofwork/models/learningobjectiveModel.py\', request=request)\n  File "C:\\Dev\\cssow_web2py\\src\\gluon\\shell.py", line 100, in exec_environment\n    execfile(pyfile, env)\n  File "applications/schemeofwork/models/learningobjectiveModel.py", line 4, in <module>\n    learningobjectiveModel = exec_environment(\'applications/schemeofwork/models/learningobjectiveModel.py\', request=request)\n  File "C:\\Dev\\cssow_web2py\\src\\gluon\\shell.py", line 100, in exec_environment\n    execfile(pyfile, env)\n  File "applications/schemeofwork/models/learningobjectiveModel.py", line 4, in <module>\n    learningobjectiveModel = exec_environment(\'applications/schemeofwork/models/learningobjectiveModel.py\', request=request)\n  File "C:\\Dev\\cssow_web2py\\src\\gluon\\shell.py", line 100, in exec_environment\n    execfile(pyfile, env)\n  File "applications/schemeofwork/models/learningobjectiveModel.py", line 4, in <module>\n    learningobjectiveModel = exec_environment(\'applications/schemeofwork/models/learningobjectiveModel.py\', request=request)\n  File "C:\\Dev\\cssow_web2py\\src\\gluon\\shell.py", line 100, in exec_environment\n    execfile(pyfile, env)\n  File "applications/schemeofwork/models/learningobjectiveModel.py", line 4, in <module>\n    learningobjectiveModel = exec_environment(\'applications/schemeofwork/models/learningobjectiveModel.py\', request=request)\n  File "C:\\Dev\\cssow_web2py\\src\\gluon\\shell.py", line 100, in exec_environment\n    execfile(pyfile, env)\n  File "applications/schemeofwork/models/learningobjectiveModel.py", line 4, in <module>\n    learningobjectiveModel = exec_environment(\'applications/schemeofwork/models/learningobjectiveModel.py\', request=request)\n  File "C:\\Dev\\cssow_web2py\\src\\gluon\\shell.py", line 100, in exec_environment\n    execfile(pyfile, env)\n  File "applications/schemeofwork/models/learningobjectiveModel.py", line 4, in <module>\n    learningobjectiveModel = exec_environment(\'applications/schemeofwork/models/learningobjectiveModel.py\', request=request)\n  File "C:\\Dev\\cssow_web2py\\src\\gluon\\shell.py", line 100, in exec_environment\n    execfile(pyfile, env)\n  File "applications/schemeofwork/models/learningobjectiveModel.py", line 4, in <module>\n    learningobjectiveModel = exec_environment(\'applications/schemeofwork/models/learningobjectiveModel.py\', request=request)\n  File "C:\\Dev\\cssow_web2py\\src\\gluon\\shell.py", line 100, in exec_environment\n    execfile(pyfile, env)\n  File "applications/schemeofwork/models/learningobjectiveModel.py", line 4, in <module>\n    learningobjectiveModel = exec_environment(\'applications/schemeofwork/models/learningobjectiveModel.py\', request=request)\n  File "C:\\Dev\\cssow_web2py\\src\\gluon\\shell.py", line 100, in exec_environment\n    execfile(pyfile, env)\n  File "applications/schemeofwork/models/learningobjectiveModel.py", line 4, in <module>\n    learningobjectiveModel = exec_environment(\'applications/schemeofwork/models/learningobjectiveModel.py\', request=request)\n  File "C:\\Dev\\cssow_web2py\\src\\gluon\\shell.py", line 100, in exec_environment\n    execfile(pyfile, env)\n  File "applications/schemeofwork/models/learningobjectiveModel.py", line 4, in <module>\n    learningobjectiveModel = exec_environment(\'applications/schemeofwork/models/learningobjectiveModel.py\', request=request)\n  File "C:\\Dev\\cssow_web2py\\src\\gluon\\shell.py", line 100, in exec_environment\n    execfile(pyfile, env)\n  File "applications/schemeofwork/models/learningobjectiveModel.py", line 4, in <module>\n    learningobjectiveModel = exec_environment(\'applications/schemeofwork/models/learningobjectiveModel.py\', request=request)\n  File "C:\\Dev\\cssow_web2py\\src\\gluon\\shell.py", line 100, in exec_environment\n    execfile(pyfile, env)\n  File "applications/schemeofwork/models/learningobjectiveModel.py", line 4, in <module>\n    learningobjectiveModel = exec_environment(\'applications/schemeofwork/models/learningobjectiveModel.py\', request=request)\n  File "C:\\Dev\\cssow_web2py\\src\\gluon\\shell.py", line 100, in exec_environment\n    execfile(pyfile, env)\n  File "applications/schemeofwork/models/learningobjectiveModel.py", line 4, in <module>\n    learningobjectiveModel = exec_environment(\'applications/schemeofwork/models/learningobjectiveModel.py\', request=request)\n  File "C:\\Dev\\cssow_web2py\\src\\gluon\\shell.py", line 100, in exec_environment\n    execfile(pyfile, env)\n  File "applications/schemeofwork/models/learningobjectiveModel.py", line 4, in <module>\n    learningobjectiveModel = exec_environment(\'applications/schemeofwork/models/learningobjectiveModel.py\', request=request)\n  File "C:\\Dev\\cssow_web2py\\src\\gluon\\shell.py", line 100, in exec_environment\n    execfile(pyfile, env)\n  File "applications/schemeofwork/models/learningobjectiveModel.py", line 4, in <module>\n    learningobjectiveModel = exec_environment(\'applications/schemeofwork/models/learningobjectiveModel.py\', request=request)\n  File "C:\\Dev\\cssow_web2py\\src\\gluon\\shell.py", line 100, in exec_environment\n    execfile(pyfile, env)\n  File "applications/schemeofwork/models/learningobjectiveModel.py", line 4, in <module>\n    learningobjectiveModel = exec_environment(\'applications/schemeofwork/models/learningobjectiveModel.py\', request=request)\n  File "C:\\Dev\\cssow_web2py\\src\\gluon\\shell.py", line 100, in exec_environment\n    execfile(pyfile, env)\n  File "applications/schemeofwork/models/learningobjectiveModel.py", line 4, in <module>\n    learningobjectiveModel = exec_environment(\'applications/schemeofwork/models/learningobjectiveModel.py\', request=request)\n  File "C:\\Dev\\cssow_web2py\\src\\gluon\\shell.py", line 100, in exec_environment\n    execfile(pyfile, env)\n  File "applications/schemeofwork/models/learningobjectiveModel.py", line 4, in <module>\n    learningobjectiveModel = exec_environment(\'applications/schemeofwork/models/learningobjectiveModel.py\', request=request)\n  File "C:\\Dev\\cssow_web2py\\src\\gluon\\shell.py", line 100, in exec_environment\n    execfile(pyfile, env)\n  File "applications/schemeofwork/models/learningobjectiveModel.py", line 4, in <module>\n    learningobjectiveModel = exec_environment(\'applications/schemeofwork/models/learningobjectiveModel.py\', request=request)\n  File "C:\\Dev\\cssow_web2py\\src\\gluon\\shell.py", line 100, in exec_environment\n    execfile(pyfile, env)\n  File "applications/schemeofwork/models/learningobjectiveModel.py", line 4, in <module>\n    learningobjectiveModel = exec_environment(\'applications/schemeofwork/models/learningobjectiveModel.py\', request=request)\n  File "C:\\Dev\\cssow_web2py\\src\\gluon\\shell.py", line 100, in exec_environment\n    execfile(pyfile, env)\n  File "applications/schemeofwork/models/learningobjectiveModel.py", line 4, in <module>\n    learningobjectiveModel = exec_environment(\'applications/schemeofwork/models/learningobjectiveModel.py\', request=request)\n  File "C:\\Dev\\cssow_web2py\\src\\gluon\\shell.py", line 100, in exec_environment\n    execfile(pyfile, env)\n  File "applications/schemeofwork/models/learningobjectiveModel.py", line 4, in <module>\n    learningobjectiveModel = exec_environment(\'applications/schemeofwork/models/learningobjectiveModel.py\', request=request)\n  File "C:\\Dev\\cssow_web2py\\src\\gluon\\shell.py", line 100, in exec_environment\n    execfile(pyfile, env)\n  File "applications/schemeofwork/models/learningobjectiveModel.py", line 4, in <module>\n    learningobjectiveModel = exec_environment(\'applications/schemeofwork/models/learningobjectiveModel.py\', request=request)\n  File "C:\\Dev\\cssow_web2py\\src\\gluon\\shell.py", line 100, in exec_environment\n    execfile(pyfile, env)\n  File "applications/schemeofwork/models/learningobjectiveModel.py", line 4, in <module>\n    learningobjectiveModel = exec_environment(\'applications/schemeofwork/models/learningobjectiveModel.py\', request=request)\n  File "C:\\Dev\\cssow_web2py\\src\\gluon\\shell.py", line 100, in exec_environment\n    execfile(pyfile, env)\n  File "applications/schemeofwork/models/learningobjectiveModel.py", line 4, in <module>\n    learningobjectiveModel = exec_environment(\'applications/schemeofwork/models/learningobjectiveModel.py\', request=request)\n  File "C:\\Dev\\cssow_web2py\\src\\gluon\\shell.py", line 100, in exec_environment\n    execfile(pyfile, env)\n  File "applications/schemeofwork/models/learningobjectiveModel.py", line 4, in <module>\n    learningobjectiveModel = exec_environment(\'applications/schemeofwork/models/learningobjectiveModel.py\', request=request)\n  File "C:\\Dev\\cssow_web2py\\src\\gluon\\shell.py", line 100, in exec_environment\n    execfile(pyfile, env)\n  File "applications/schemeofwork/models/learningobjectiveModel.py", line 4, in <module>\n    learningobjectiveModel = exec_environment(\'applications/schemeofwork/models/learningobjectiveModel.py\', request=request)\n  File "C:\\Dev\\cssow_web2py\\src\\gluon\\shell.py", line 100, in exec_environment\n    execfile(pyfile, env)\n  File "applications/schemeofwork/models/learningobjectiveModel.py", line 4, in <module>\n    learningobjectiveModel = exec_environment(\'applications/schemeofwork/models/learningobjectiveModel.py\', request=request)\n  File "C:\\Dev\\cssow_web2py\\src\\gluon\\shell.py", line 100, in exec_environment\n    execfile(pyfile, env)\n  File "applications/schemeofwork/models/learningobjectiveModel.py", line 4, in <module>\n    learningobjectiveModel = exec_environment(\'applications/schemeofwork/models/learningobjectiveModel.py\', request=request)\n  File "C:\\Dev\\cssow_web2py\\src\\gluon\\shell.py", line 100, in exec_environment\n    execfile(pyfile, env)\n  File "applications/schemeofwork/models/learningobjectiveModel.py", line 4, in <module>\n    learningobjectiveModel = exec_environment(\'applications/schemeofwork/models/learningobjectiveModel.py\', request=request)\n  File "C:\\Dev\\cssow_web2py\\src\\gluon\\shell.py", line 100, in exec_environment\n    execfile(pyfile, env)\n  File "applications/schemeofwork/models/learningobjectiveModel.py", line 4, in <module>\n    learningobjectiveModel = exec_environment(\'applications/schemeofwork/models/learningobjectiveModel.py\', request=request)\n  File "C:\\Dev\\cssow_web2py\\src\\gluon\\shell.py", line 100, in exec_environment\n    execfile(pyfile, env)\n  File "applications/schemeofwork/models/learningobjectiveModel.py", line 4, in <module>\n    learningobjectiveModel = exec_environment(\'applications/schemeofwork/models/learningobjectiveModel.py\', request=request)\n  File "C:\\Dev\\cssow_web2py\\src\\gluon\\shell.py", line 100, in exec_environment\n    execfile(pyfile, env)\n  File "applications/schemeofwork/models/learningobjectiveModel.py", line 4, in <module>\n    learningobjectiveModel = exec_environment(\'applications/schemeofwork/models/learningobjectiveModel.py\', request=request)\n  File "C:\\Dev\\cssow_web2py\\src\\gluon\\shell.py", line 100, in exec_environment\n    execfile(pyfile, env)\n  File "applications/schemeofwork/models/learningobjectiveModel.py", line 4, in <module>\n    learningobjectiveModel = exec_environment(\'applications/schemeofwork/models/learningobjectiveModel.py\', request=request)\n  File "C:\\Dev\\cssow_web2py\\src\\gluon\\shell.py", line 100, in exec_environment\n    execfile(pyfile, env)\n  File "applications/schemeofwork/models/learningobjectiveModel.py", line 4, in <module>\n    learningobjectiveModel = exec_environment(\'applications/schemeofwork/models/learningobjectiveModel.py\', request=request)\n  File "C:\\Dev\\cssow_web2py\\src\\gluon\\shell.py", line 100, in exec_environment\n    execfile(pyfile, env)\n  File "applications/schemeofwork/models/learningobjectiveModel.py", line 4, in <module>\n    learningobjectiveModel = exec_environment(\'applications/schemeofwork/models/learningobjectiveModel.py\', request=request)\n  File "C:\\Dev\\cssow_web2py\\src\\gluon\\shell.py", line 100, in exec_environment\n    execfile(pyfile, env)\n  File "applications/schemeofwork/models/learningobjectiveModel.py", line 4, in <module>\n    learningobjectiveModel = exec_environment(\'applications/schemeofwork/models/learningobjectiveModel.py\', request=request)\n  File "C:\\Dev\\cssow_web2py\\src\\gluon\\shell.py", line 100, in exec_environment\n    execfile(pyfile, env)\n  File "applications/schemeofwork/models/learningobjectiveModel.py", line 4, in <module>\n    learningobjectiveModel = exec_environment(\'applications/schemeofwork/models/learningobjectiveModel.py\', request=request)\n  File "C:\\Dev\\cssow_web2py\\src\\gluon\\shell.py", line 100, in exec_environment\n    execfile(pyfile, env)\n  File "applications/schemeofwork/models/learningobjectiveModel.py", line 4, in <module>\n    learningobjectiveModel = exec_environment(\'applications/schemeofwork/models/learningobjectiveModel.py\', request=request)\n  File "C:\\Dev\\cssow_web2py\\src\\gluon\\shell.py", line 100, in exec_environment\n    execfile(pyfile, env)\n  File "applications/schemeofwork/models/learningobjectiveModel.py", line 4, in <module>\n    learningobjectiveModel = exec_environment(\'applications/schemeofwork/models/learningobjectiveModel.py\', request=request)\n  File "C:\\Dev\\cssow_web2py\\src\\gluon\\shell.py", line 100, in exec_environment\n    execfile(pyfile, env)\n  File "applications/schemeofwork/models/learningobjectiveModel.py", line 4, in <module>\n    learningobjectiveModel = exec_environment(\'applications/schemeofwork/models/learningobjectiveModel.py\', request=request)\n  File "C:\\Dev\\cssow_web2py\\src\\gluon\\shell.py", line 100, in exec_environment\n    execfile(pyfile, env)\n  File "applications/schemeofwork/models/learningobjectiveModel.py", line 4, in <module>\n    learningobjectiveModel = exec_environment(\'applications/schemeofwork/models/learningobjectiveModel.py\', request=request)\n  File "C:\\Dev\\cssow_web2py\\src\\gluon\\shell.py", line 100, in exec_environment\n    execfile(pyfile, env)\n  File "applications/schemeofwork/models/learningobjectiveModel.py", line 4, in <module>\n    learningobjectiveModel = exec_environment(\'applications/schemeofwork/models/learningobjectiveModel.py\', request=request)\n  File "C:\\Dev\\cssow_web2py\\src\\gluon\\shell.py", line 100, in exec_environment\n    execfile(pyfile, env)\n  File "applications/schemeofwork/models/learningobjectiveModel.py", line 4, in <module>\n    learningobjectiveModel = exec_environment(\'applications/schemeofwork/models/learningobjectiveModel.py\', request=request)\n  File "C:\\Dev\\cssow_web2py\\src\\gluon\\shell.py", line 100, in exec_environment\n    execfile(pyfile, env)\n  File "applications/schemeofwork/models/learningobjectiveModel.py", line 4, in <module>\n    learningobjectiveModel = exec_environment(\'applications/schemeofwork/models/learningobjectiveModel.py\', request=request)\n  File "C:\\Dev\\cssow_web2py\\src\\gluon\\shell.py", line 100, in exec_environment\n    execfile(pyfile, env)\n  File "applications/schemeofwork/models/learningobjectiveModel.py", line 4, in <module>\n    learningobjectiveModel = exec_environment(\'applications/schemeofwork/models/learningobjectiveModel.py\', request=request)\n  File "C:\\Dev\\cssow_web2py\\src\\gluon\\shell.py", line 100, in exec_environment\n    execfile(pyfile, env)\n  File "applications/schemeofwork/models/learningobjectiveModel.py", line 4, in <module>\n    learningobjectiveModel = exec_environment(\'applications/schemeofwork/models/learningobjectiveModel.py\', request=request)\n  File "C:\\Dev\\cssow_web2py\\src\\gluon\\shell.py", line 100, in exec_environment\n    execfile(pyfile, env)\n  File "applications/schemeofwork/models/learningobjectiveModel.py", line 4, in <module>\n    learningobjectiveModel = exec_environment(\'applications/schemeofwork/models/learningobjectiveModel.py\', request=request)\n  File "C:\\Dev\\cssow_web2py\\src\\gluon\\shell.py", line 100, in exec_environment\n    execfile(pyfile, env)\n  File "applications/schemeofwork/models/learningobjectiveModel.py", line 4, in <module>\n    learningobjectiveModel = exec_environment(\'applications/schemeofwork/models/learningobjectiveModel.py\', request=request)\n  File "C:\\Dev\\cssow_web2py\\src\\gluon\\shell.py", line 100, in exec_environment\n    execfile(pyfile, env)\n  File "applications/schemeofwork/models/learningobjectiveModel.py", line 4, in <module>\n    learningobjectiveModel = exec_environment(\'applications/schemeofwork/models/learningobjectiveModel.py\', request=request)\n  File "C:\\Dev\\cssow_web2py\\src\\gluon\\shell.py", line 100, in exec_environment\n    execfile(pyfile, env)\n  File "applications/schemeofwork/models/learningobjectiveModel.py", line 4, in <module>\n    learningobjectiveModel = exec_environment(\'applications/schemeofwork/models/learningobjectiveModel.py\', request=request)\n  File "C:\\Dev\\cssow_web2py\\src\\gluon\\shell.py", line 100, in exec_environment\n    execfile(pyfile, env)\n  File "applications/schemeofwork/models/learningobjectiveModel.py", line 4, in <module>\n    learningobjectiveModel = exec_environment(\'applications/schemeofwork/models/learningobjectiveModel.py\', request=request)\n  File "C:\\Dev\\cssow_web2py\\src\\gluon\\shell.py", line 100, in exec_environment\n    execfile(pyfile, env)\n  File "applications/schemeofwork/models/learningobjectiveModel.py", line 4, in <module>\n    learningobjectiveModel = exec_environment(\'applications/schemeofwork/models/learningobjectiveModel.py\', request=request)\n  File "C:\\Dev\\cssow_web2py\\src\\gluon\\shell.py", line 100, in exec_environment\n    execfile(pyfile, env)\n  File "applications/schemeofwork/models/learningobjectiveModel.py", line 4, in <module>\n    learningobjectiveModel = exec_environment(\'applications/schemeofwork/models/learningobjectiveModel.py\', request=request)\n  File "C:\\Dev\\cssow_web2py\\src\\gluon\\shell.py", line 100, in exec_environment\n    execfile(pyfile, env)\n  File "applications/schemeofwork/models/learningobjectiveModel.py", line 4, in <module>\n    learningobjectiveModel = exec_environment(\'applications/schemeofwork/models/learningobjectiveModel.py\', request=request)\n  File "C:\\Dev\\cssow_web2py\\src\\gluon\\shell.py", line 100, in exec_environment\n    execfile(pyfile, env)\n  File "applications/schemeofwork/models/learningobjectiveModel.py", line 4, in <module>\n    learningobjectiveModel = exec_environment(\'applications/schemeofwork/models/learningobjectiveModel.py\', request=request)\n  File "C:\\Dev\\cssow_web2py\\src\\gluon\\shell.py", line 100, in exec_environment\n    execfile(pyfile, env)\n  File "applications/schemeofwork/models/learningobjectiveModel.py", line 4, in <module>\n    learningobjectiveModel = exec_environment(\'applications/schemeofwork/models/learningobjectiveModel.py\', request=request)\n  File "C:\\Dev\\cssow_web2py\\src\\gluon\\shell.py", line 100, in exec_environment\n    execfile(pyfile, env)\n  File "applications/schemeofwork/models/learningobjectiveModel.py", line 4, in <module>\n    learningobjectiveModel = exec_environment(\'applications/schemeofwork/models/learningobjectiveModel.py\', request=request)\n  File "C:\\Dev\\cssow_web2py\\src\\gluon\\shell.py", line 100, in exec_environment\n    execfile(pyfile, env)\n  File "applications/schemeofwork/models/learningobjectiveModel.py", line 4, in <module>\n    learningobjectiveModel = exec_environment(\'applications/schemeofwork/models/learningobjectiveModel.py\', request=request)\n  File "C:\\Dev\\cssow_web2py\\src\\gluon\\shell.py", line 100, in exec_environment\n    execfile(pyfile, env)\n  File "applications/schemeofwork/models/learningobjectiveModel.py", line 4, in <module>\n    learningobjectiveModel = exec_environment(\'applications/schemeofwork/models/learningobjectiveModel.py\', request=request)\n  File "C:\\Dev\\cssow_web2py\\src\\gluon\\shell.py", line 100, in exec_environment\n    execfile(pyfile, env)\n  File "applications/schemeofwork/models/learningobjectiveModel.py", line 4, in <module>\n    learningobjectiveModel = exec_environment(\'applications/schemeofwork/models/learningobjectiveModel.py\', request=request)\n  File "C:\\Dev\\cssow_web2py\\src\\gluon\\shell.py", line 100, in exec_environment\n    execfile(pyfile, env)\n  File "applications/schemeofwork/models/learningobjectiveModel.py", line 4, in <module>\n    learningobjectiveModel = exec_environment(\'applications/schemeofwork/models/learningobjectiveModel.py\', request=request)\n  File "C:\\Dev\\cssow_web2py\\src\\gluon\\shell.py", line 100, in exec_environment\n    execfile(pyfile, env)\n  File "applications/schemeofwork/models/learningobjectiveModel.py", line 4, in <module>\n    learningobjectiveModel = exec_environment(\'applications/schemeofwork/models/learningobjectiveModel.py\', request=request)\n  File "C:\\Dev\\cssow_web2py\\src\\gluon\\shell.py", line 100, in exec_environment\n    execfile(pyfile, env)\n  File "applications/schemeofwork/models/learningobjectiveModel.py", line 4, in <module>\n    learningobjectiveModel = exec_environment(\'applications/schemeofwork/models/learningobjectiveModel.py\', request=request)\n  File "C:\\Dev\\cssow_web2py\\src\\gluon\\shell.py", line 100, in exec_environment\n    execfile(pyfile, env)\n  File "applications/schemeofwork/models/learningobjectiveModel.py", line 4, in <module>\n    learningobjectiveModel = exec_environment(\'applications/schemeofwork/models/learningobjectiveModel.py\', request=request)\n  File "C:\\Dev\\cssow_web2py\\src\\gluon\\shell.py", line 100, in exec_environment\n    execfile(pyfile, env)\n  File "applications/schemeofwork/models/learningobjectiveModel.py", line 4, in <module>\n    learningobjectiveModel = exec_environment(\'applications/schemeofwork/models/learningobjectiveModel.py\', request=request)\n  File "C:\\Dev\\cssow_web2py\\src\\gluon\\shell.py", line 100, in exec_environment\n    execfile(pyfile, env)\n  File "applications/schemeofwork/models/learningobjectiveModel.py", line 4, in <module>\n    learningobjectiveModel = exec_environment(\'applications/schemeofwork/models/learningobjectiveModel.py\', request=request)\n  File "C:\\Dev\\cssow_web2py\\src\\gluon\\shell.py", line 100, in exec_environment\n    execfile(pyfile, env)\n  File "applications/schemeofwork/models/learningobjectiveModel.py", line 4, in <module>\n    learningobjectiveModel = exec_environment(\'applications/schemeofwork/models/learningobjectiveModel.py\', request=request)\n  File "C:\\Dev\\cssow_web2py\\src\\gluon\\shell.py", line 100, in exec_environment\n    execfile(pyfile, env)\n  File "applications/schemeofwork/models/learningobjectiveModel.py", line 4, in <module>\n    learningobjectiveModel = exec_environment(\'applications/schemeofwork/models/learningobjectiveModel.py\', request=request)\n  File "C:\\Dev\\cssow_web2py\\src\\gluon\\shell.py", line 100, in exec_environment\n    execfile(pyfile, env)\n  File "applications/schemeofwork/models/learningobjectiveModel.py", line 4, in <module>\n    learningobjectiveModel = exec_environment(\'applications/schemeofwork/models/learningobjectiveModel.py\', request=request)\n  File "C:\\Dev\\cssow_web2py\\src\\gluon\\shell.py", line 100, in exec_environment\n    execfile(pyfile, env)\n  File "applications/schemeofwork/models/learningobjectiveModel.py", line 4, in <module>\n    learningobjectiveModel = exec_environment(\'applications/schemeofwork/models/learningobjectiveModel.py\', request=request)\n  File "C:\\Dev\\cssow_web2py\\src\\gluon\\shell.py", line 100, in exec_environment\n    execfile(pyfile, env)\n  File "applications/schemeofwork/models/learningobjectiveModel.py", line 4, in <module>\n    learningobjectiveModel = exec_environment(\'applications/schemeofwork/models/learningobjectiveModel.py\', request=request)\n  File "C:\\Dev\\cssow_web2py\\src\\gluon\\shell.py", line 100, in exec_environment\n    execfile(pyfile, env)\n  File "applications/schemeofwork/models/learningobjectiveModel.py", line 4, in <module>\n    learningobjectiveModel = exec_environment(\'applications/schemeofwork/models/learningobjectiveModel.py\', request=request)\n  File "C:\\Dev\\cssow_web2py\\src\\gluon\\shell.py", line 100, in exec_environment\n    execfile(pyfile, env)\n  File "applications/schemeofwork/models/learningobjectiveModel.py", line 4, in <module>\n    learningobjectiveModel = exec_environment(\'applications/schemeofwork/models/learningobjectiveModel.py\', request=request)\n  File "C:\\Dev\\cssow_web2py\\src\\gluon\\shell.py", line 100, in exec_environment\n    execfile(pyfile, env)\n  File "applications/schemeofwork/models/learningobjectiveModel.py", line 4, in <module>\n    learningobjectiveModel = exec_environment(\'applications/schemeofwork/models/learningobjectiveModel.py\', request=request)\n  File "C:\\Dev\\cssow_web2py\\src\\gluon\\shell.py", line 100, in exec_environment\n    execfile(pyfile, env)\n  File "applications/schemeofwork/models/learningobjectiveModel.py", line 4, in <module>\n    learningobjectiveModel = exec_environment(\'applications/schemeofwork/models/learningobjectiveModel.py\', request=request)\n  File "C:\\Dev\\cssow_web2py\\src\\gluon\\shell.py", line 100, in exec_environment\n    execfile(pyfile, env)\n  File "applications/schemeofwork/models/learningobjectiveModel.py", line 4, in <module>\n    learningobjectiveModel = exec_environment(\'applications/schemeofwork/models/learningobjectiveModel.py\', request=request)\n  File "C:\\Dev\\cssow_web2py\\src\\gluon\\shell.py", line 100, in exec_environment\n    execfile(pyfile, env)\n  File "applications/schemeofwork/models/learningobjectiveModel.py", line 4, in <module>\n    learningobjectiveModel = exec_environment(\'applications/schemeofwork/models/learningobjectiveModel.py\', request=request)\n  File "C:\\Dev\\cssow_web2py\\src\\gluon\\shell.py", line 100, in exec_environment\n    execfile(pyfile, env)\n  File "applications/schemeofwork/models/learningobjectiveModel.py", line 4, in <module>\n    learningobjectiveModel = exec_environment(\'applications/schemeofwork/models/learningobjectiveModel.py\', request=request)\n  File "C:\\Dev\\cssow_web2py\\src\\gluon\\shell.py", line 100, in exec_environment\n    execfile(pyfile, env)\n  File "applications/schemeofwork/models/learningobjectiveModel.py", line 4, in <module>\n    learningobjectiveModel = exec_environment(\'applications/schemeofwork/models/learningobjectiveModel.py\', request=request)\n  File "C:\\Dev\\cssow_web2py\\src\\gluon\\shell.py", line 100, in exec_environment\n    execfile(pyfile, env)\n  File "applications/schemeofwork/models/learningobjectiveModel.py", line 4, in <module>\n    learningobjectiveModel = exec_environment(\'applications/schemeofwork/models/learningobjectiveModel.py\', request=request)\n  File "C:\\Dev\\cssow_web2py\\src\\gluon\\shell.py", line 100, in exec_environment\n    execfile(pyfile, env)\n  File "applications/schemeofwork/models/learningobjectiveModel.py", line 4, in <module>\n    learningobjectiveModel = exec_environment(\'applications/schemeofwork/models/learningobjectiveModel.py\', request=request)\n  File "C:\\Dev\\cssow_web2py\\src\\gluon\\shell.py", line 100, in exec_environment\n    execfile(pyfile, env)\n  File "applications/schemeofwork/models/learningobjectiveModel.py", line 4, in <module>\n    learningobjectiveModel = exec_environment(\'applications/schemeofwork/models/learningobjectiveModel.py\', request=request)\n  File "C:\\Dev\\cssow_web2py\\src\\gluon\\shell.py", line 100, in exec_environment\n    execfile(pyfile, env)\n  File "applications/schemeofwork/models/learningobjectiveModel.py", line 4, in <module>\n    learningobjectiveModel = exec_environment(\'applications/schemeofwork/models/learningobjectiveModel.py\', request=request)\n  File "C:\\Dev\\cssow_web2py\\src\\gluon\\shell.py", line 100, in exec_environment\n    execfile(pyfile, env)\n  File "applications/schemeofwork/models/learningobjectiveModel.py", line 4, in <module>\n    learningobjectiveModel = exec_environment(\'applications/schemeofwork/models/learningobjectiveModel.py\', request=request)\n  File "C:\\Dev\\cssow_web2py\\src\\gluon\\shell.py", line 100, in exec_environment\n    execfile(pyfile, env)\n  File "applications/schemeofwork/models/learningobjectiveModel.py", line 4, in <module>\n    learningobjectiveModel = exec_environment(\'applications/schemeofwork/models/learningobjectiveModel.py\', request=request)\n  File "C:\\Dev\\cssow_web2py\\src\\gluon\\shell.py", line 100, in exec_environment\n    execfile(pyfile, env)\n  File "applications/schemeofwork/models/learningobjectiveModel.py", line 4, in <module>\n    learningobjectiveModel = exec_environment(\'applications/schemeofwork/models/learningobjectiveModel.py\', request=request)\n  File "C:\\Dev\\cssow_web2py\\src\\gluon\\shell.py", line 100, in exec_environment\n    execfile(pyfile, env)\n  File "applications/schemeofwork/models/learningobjectiveModel.py", line 4, in <module>\n    learningobjectiveModel = exec_environment(\'applications/schemeofwork/models/learningobjectiveModel.py\', request=request)\n  File "C:\\Dev\\cssow_web2py\\src\\gluon\\shell.py", line 100, in exec_environment\n    execfile(pyfile, env)\n  File "applications/schemeofwork/models/learningobjectiveModel.py", line 4, in <module>\n    learningobjectiveModel = exec_environment(\'applications/schemeofwork/models/learningobjectiveModel.py\', request=request)\n  File "C:\\Dev\\cssow_web2py\\src\\gluon\\shell.py", line 100, in exec_environment\n    execfile(pyfile, env)\n  File "applications/schemeofwork/models/learningobjectiveModel.py", line 4, in <module>\n    learningobjectiveModel = exec_environment(\'applications/schemeofwork/models/learningobjectiveModel.py\', request=request)\n  File "C:\\Dev\\cssow_web2py\\src\\gluon\\shell.py", line 100, in exec_environment\n    execfile(pyfile, env)\n  File "applications/schemeofwork/models/learningobjectiveModel.py", line 4, in <module>\n    learningobjectiveModel = exec_environment(\'applications/schemeofwork/models/learningobjectiveModel.py\', request=request)\n  File "C:\\Dev\\cssow_web2py\\src\\gluon\\shell.py", line 100, in exec_environment\n    execfile(pyfile, env)\n  File "applications/schemeofwork/models/learningobjectiveModel.py", line 4, in <module>\n    learningobjectiveModel = exec_environment(\'applications/schemeofwork/models/learningobjectiveModel.py\', request=request)\n  File "C:\\Dev\\cssow_web2py\\src\\gluon\\shell.py", line 100, in exec_environment\n    execfile(pyfile, env)\n  File "applications/schemeofwork/models/learningobjectiveModel.py", line 4, in <module>\n    learningobjectiveModel = exec_environment(\'applications/schemeofwork/models/learningobjectiveModel.py\', request=request)\n  File "C:\\Dev\\cssow_web2py\\src\\gluon\\shell.py", line 100, in exec_environment\n    execfile(pyfile, env)\n  File "applications/schemeofwork/models/learningobjectiveModel.py", line 4, in <module>\n    learningobjectiveModel = exec_environment(\'applications/schemeofwork/models/learningobjectiveModel.py\', request=request)\n  File "C:\\Dev\\cssow_web2py\\src\\gluon\\shell.py", line 100, in exec_environment\n    execfile(pyfile, env)\n  File "applications/schemeofwork/models/learningobjectiveModel.py", line 4, in <module>\n    learningobjectiveModel = exec_environment(\'applications/schemeofwork/models/learningobjectiveModel.py\', request=request)\n  File "C:\\Dev\\cssow_web2py\\src\\gluon\\shell.py", line 100, in exec_environment\n    execfile(pyfile, env)\n  File "applications/schemeofwork/models/learningobjectiveModel.py", line 4, in <module>\n    learningobjectiveModel = exec_environment(\'applications/schemeofwork/models/learningobjectiveModel.py\', request=request)\n  File "C:\\Dev\\cssow_web2py\\src\\gluon\\shell.py", line 100, in exec_environment\n    execfile(pyfile, env)\n  File "applications/schemeofwork/models/learningobjectiveModel.py", line 4, in <module>\n    learningobjectiveModel = exec_environment(\'applications/schemeofwork/models/learningobjectiveModel.py\', request=request)\n  File "C:\\Dev\\cssow_web2py\\src\\gluon\\shell.py", line 100, in exec_environment\n    execfile(pyfile, env)\n  File "applications/schemeofwork/models/learningobjectiveModel.py", line 4, in <module>\n    learningobjectiveModel = exec_environment(\'applications/schemeofwork/models/learningobjectiveModel.py\', request=request)\n  File "C:\\Dev\\cssow_web2py\\src\\gluon\\shell.py", line 100, in exec_environment\n    execfile(pyfile, env)\n  File "applications/schemeofwork/models/learningobjectiveModel.py", line 4, in <module>\n    learningobjectiveModel = exec_environment(\'applications/schemeofwork/models/learningobjectiveModel.py\', request=request)\n  File "C:\\Dev\\cssow_web2py\\src\\gluon\\shell.py", line 100, in exec_environment\n    execfile(pyfile, env)\n  File "applications/schemeofwork/models/learningobjectiveModel.py", line 4, in <module>\n    learningobjectiveModel = exec_environment(\'applications/schemeofwork/models/learningobjectiveModel.py\', request=request)\n  File "C:\\Dev\\cssow_web2py\\src\\gluon\\shell.py", line 100, in exec_environment\n    execfile(pyfile, env)\n  File "applications/schemeofwork/models/learningobjectiveModel.py", line 4, in <module>\n    learningobjectiveModel = exec_environment(\'applications/schemeofwork/models/learningobjectiveModel.py\', request=request)\n  File "C:\\Dev\\cssow_web2py\\src\\gluon\\shell.py", line 100, in exec_environment\n    execfile(pyfile, env)\n  File "applications/schemeofwork/models/learningobjectiveModel.py", line 4, in <module>\n    learningobjectiveModel = exec_environment(\'applications/schemeofwork/models/learningobjectiveModel.py\', request=request)\n  File "C:\\Dev\\cssow_web2py\\src\\gluon\\shell.py", line 100, in exec_environment\n    execfile(pyfile, env)\n  File "applications/schemeofwork/models/learningobjectiveModel.py", line 4, in <module>\n    learningobjectiveModel = exec_environment(\'applications/schemeofwork/models/learningobjectiveModel.py\', request=request)\n  File "C:\\Dev\\cssow_web2py\\src\\gluon\\shell.py", line 100, in exec_environment\n    execfile(pyfile, env)\n  File "applications/schemeofwork/models/learningobjectiveModel.py", line 4, in <module>\n    learningobjectiveModel = exec_environment(\'applications/schemeofwork/models/learningobjectiveModel.py\', request=request)\n  File "C:\\Dev\\cssow_web2py\\src\\gluon\\shell.py", line 100, in exec_environment\n    execfile(pyfile, env)\n  File "applications/schemeofwork/models/learningobjectiveModel.py", line 4, in <module>\n    learningobjectiveModel = exec_environment(\'applications/schemeofwork/models/learningobjectiveModel.py\', request=request)\n  File "C:\\Dev\\cssow_web2py\\src\\gluon\\shell.py", line 100, in exec_environment\n    execfile(pyfile, env)\n  File "applications/schemeofwork/models/learningobjectiveModel.py", line 4, in <module>\n    learningobjectiveModel = exec_environment(\'applications/schemeofwork/models/learningobjectiveModel.py\', request=request)\n  File "C:\\Dev\\cssow_web2py\\src\\gluon\\shell.py", line 100, in exec_environment\n    execfile(pyfile, env)\n  File "applications/schemeofwork/models/learningobjectiveModel.py", line 4, in <module>\n    learningobjectiveModel = exec_environment(\'applications/schemeofwork/models/learningobjectiveModel.py\', request=request)\n  File "C:\\Dev\\cssow_web2py\\src\\gluon\\shell.py", line 100, in exec_environment\n    execfile(pyfile, env)\n  File "applications/schemeofwork/models/learningobjectiveModel.py", line 4, in <module>\n    learningobjectiveModel = exec_environment(\'applications/schemeofwork/models/learningobjectiveModel.py\', request=request)\n  File "C:\\Dev\\cssow_web2py\\src\\gluon\\shell.py", line 100, in exec_environment\n    execfile(pyfile, env)\n  File "applications/schemeofwork/models/learningobjectiveModel.py", line 4, in <module>\n    learningobjectiveModel = exec_environment(\'applications/schemeofwork/models/learningobjectiveModel.py\', request=request)\n  File "C:\\Dev\\cssow_web2py\\src\\gluon\\shell.py", line 100, in exec_environment\n    execfile(pyfile, env)\n  File "applications/schemeofwork/models/learningobjectiveModel.py", line 4, in <module>\n    learningobjectiveModel = exec_environment(\'applications/schemeofwork/models/learningobjectiveModel.py\', request=request)\n  File "C:\\Dev\\cssow_web2py\\src\\gluon\\shell.py", line 100, in exec_environment\n    execfile(pyfile, env)\n  File "applications/schemeofwork/models/learningobjectiveModel.py", line 4, in <module>\n    learningobjectiveModel = exec_environment(\'applications/schemeofwork/models/learningobjectiveModel.py\', request=request)\n  File "C:\\Dev\\cssow_web2py\\src\\gluon\\shell.py", line 100, in exec_environment\n    execfile(pyfile, env)\n  File "applications/schemeofwork/models/learningobjectiveModel.py", line 4, in <module>\n    learningobjectiveModel = exec_environment(\'applications/schemeofwork/models/learningobjectiveModel.py\', request=request)\n  File "C:\\Dev\\cssow_web2py\\src\\gluon\\shell.py", line 100, in exec_environment\n    execfile(pyfile, env)\n  File "applications/schemeofwork/models/learningobjectiveModel.py", line 4, in <module>\n    learningobjectiveModel = exec_environment(\'applications/schemeofwork/models/learningobjectiveModel.py\', request=request)\n  File "C:\\Dev\\cssow_web2py\\src\\gluon\\shell.py", line 100, in exec_environment\n    execfile(pyfile, env)\n  File "applications/schemeofwork/models/learningobjectiveModel.py", line 4, in <module>\n    learningobjectiveModel = exec_environment(\'applications/schemeofwork/models/learningobjectiveModel.py\', request=request)\n  File "C:\\Dev\\cssow_web2py\\src\\gluon\\shell.py", line 100, in exec_environment\n    execfile(pyfile, env)\n  File "applications/schemeofwork/models/learningobjectiveModel.py", line 4, in <module>\n    learningobjectiveModel = exec_environment(\'applications/schemeofwork/models/learningobjectiveModel.py\', request=request)\n  File "C:\\Dev\\cssow_web2py\\src\\gluon\\shell.py", line 100, in exec_environment\n    execfile(pyfile, env)\n  File "applications/schemeofwork/models/learningobjectiveModel.py", line 4, in <module>\n    learningobjectiveModel = exec_environment(\'applications/schemeofwork/models/learningobjectiveModel.py\', request=request)\n  File "C:\\Dev\\cssow_web2py\\src\\gluon\\shell.py", line 100, in exec_environment\n    execfile(pyfile, env)\n  File "applications/schemeofwork/models/learningobjectiveModel.py", line 4, in <module>\n    learningobjectiveModel = exec_environment(\'applications/schemeofwork/models/learningobjectiveModel.py\', request=request)\n  File "C:\\Dev\\cssow_web2py\\src\\gluon\\shell.py", line 100, in exec_environment\n    execfile(pyfile, env)\n  File "applications/schemeofwork/models/learningobjectiveModel.py", line 4, in <module>\n    learningobjectiveModel = exec_environment(\'applications/schemeofwork/models/learningobjectiveModel.py\', request=request)\n  File "C:\\Dev\\cssow_web2py\\src\\gluon\\shell.py", line 100, in exec_environment\n    execfile(pyfile, env)\n  File "applications/schemeofwork/models/learningobjectiveModel.py", line 4, in <module>\n    learningobjectiveModel = exec_environment(\'applications/schemeofwork/models/learningobjectiveModel.py\', request=request)\n  File "C:\\Dev\\cssow_web2py\\src\\gluon\\shell.py", line 100, in exec_environment\n    execfile(pyfile, env)\n  File "applications/schemeofwork/models/learningobjectiveModel.py", line 4, in <module>\n    learningobjectiveModel = exec_environment(\'applications/schemeofwork/models/learningobjectiveModel.py\', request=request)\n  File "C:\\Dev\\cssow_web2py\\src\\gluon\\shell.py", line 100, in exec_environment\n    execfile(pyfile, env)\n  File "applications/schemeofwork/models/learningobjectiveModel.py", line 4, in <module>\n    learningobjectiveModel = exec_environment(\'applications/schemeofwork/models/learningobjectiveModel.py\', request=request)\n  File "C:\\Dev\\cssow_web2py\\src\\gluon\\shell.py", line 100, in exec_environment\n    execfile(pyfile, env)\n  File "applications/schemeofwork/models/learningobjectiveModel.py", line 4, in <module>\n    learningobjectiveModel = exec_environment(\'applications/schemeofwork/models/learningobjectiveModel.py\', request=request)\n  File "C:\\Dev\\cssow_web2py\\src\\gluon\\shell.py", line 100, in exec_environment\n    execfile(pyfile, env)\n  File "applications/schemeofwork/models/learningobjectiveModel.py", line 4, in <module>\n    learningobjectiveModel = exec_environment(\'applications/schemeofwork/models/learningobjectiveModel.py\', request=request)\n  File "C:\\Dev\\cssow_web2py\\src\\gluon\\shell.py", line 100, in exec_environment\n    execfile(pyfile, env)\n  File "applications/schemeofwork/models/learningobjectiveModel.py", line 4, in <module>\n    learningobjectiveModel = exec_environment(\'applications/schemeofwork/models/learningobjectiveModel.py\', request=request)\n  File "C:\\Dev\\cssow_web2py\\src\\gluon\\shell.py", line 100, in exec_environment\n    execfile(pyfile, env)\n  File "applications/schemeofwork/models/learningobjectiveModel.py", line 4, in <module>\n    learningobjectiveModel = exec_environment(\'applications/schemeofwork/models/learningobjectiveModel.py\', request=request)\n  File "C:\\Dev\\cssow_web2py\\src\\gluon\\shell.py", line 100, in exec_environment\n    execfile(pyfile, env)\n  File "applications/schemeofwork/models/learningobjectiveModel.py", line 4, in <module>\n    learningobjectiveModel = exec_environment(\'applications/schemeofwork/models/learningobjectiveModel.py\', request=request)\n  File "C:\\Dev\\cssow_web2py\\src\\gluon\\shell.py", line 100, in exec_environment\n    execfile(pyfile, env)\n  File "applications/schemeofwork/models/learningobjectiveModel.py", line 4, in <module>\n    learningobjectiveModel = exec_environment(\'applications/schemeofwork/models/learningobjectiveModel.py\', request=request)\n  File "C:\\Dev\\cssow_web2py\\src\\gluon\\shell.py", line 100, in exec_environment\n    execfile(pyfile, env)\n  File "applications/schemeofwork/models/learningobjectiveModel.py", line 4, in <module>\n    learningobjectiveModel = exec_environment(\'applications/schemeofwork/models/learningobjectiveModel.py\', request=request)\n  File "C:\\Dev\\cssow_web2py\\src\\gluon\\shell.py", line 100, in exec_environment\n    execfile(pyfile, env)\n  File "applications/schemeofwork/models/learningobjectiveModel.py", line 4, in <module>\n    learningobjectiveModel = exec_environment(\'applications/schemeofwork/models/learningobjectiveModel.py\', request=request)\n  File "C:\\Dev\\cssow_web2py\\src\\gluon\\shell.py", line 100, in exec_environment\n    execfile(pyfile, env)\n  File "applications/schemeofwork/models/learningobjectiveModel.py", line 4, in <module>\n    learningobjectiveModel = exec_environment(\'applications/schemeofwork/models/learningobjectiveModel.py\', request=request)\n  File "C:\\Dev\\cssow_web2py\\src\\gluon\\shell.py", line 100, in exec_environment\n    execfile(pyfile, env)\n  File "applications/schemeofwork/models/learningobjectiveModel.py", line 4, in <module>\n    learningobjectiveModel = exec_environment(\'applications/schemeofwork/models/learningobjectiveModel.py\', request=request)\n  File "C:\\Dev\\cssow_web2py\\src\\gluon\\shell.py", line 100, in exec_environment\n    execfile(pyfile, env)\n  File "applications/schemeofwork/models/learningobjectiveModel.py", line 4, in <module>\n    learningobjectiveModel = exec_environment(\'applications/schemeofwork/models/learningobjectiveModel.py\', request=request)\n  File "C:\\Dev\\cssow_web2py\\src\\gluon\\shell.py", line 100, in exec_environment\n    execfile(pyfile, env)\n  File "applications/schemeofwork/models/learningobjectiveModel.py", line 4, in <module>\n    learningobjectiveModel = exec_environment(\'applications/schemeofwork/models/learningobjectiveModel.py\', request=request)\n  File "C:\\Dev\\cssow_web2py\\src\\gluon\\shell.py", line 100, in exec_environment\n    execfile(pyfile, env)\n  File "applications/schemeofwork/models/learningobjectiveModel.py", line 4, in <module>\n    learningobjectiveModel = exec_environment(\'applications/schemeofwork/models/learningobjectiveModel.py\', request=request)\n  File "C:\\Dev\\cssow_web2py\\src\\gluon\\shell.py", line 100, in exec_environment\n    execfile(pyfile, env)\n  File "applications/schemeofwork/models/learningobjectiveModel.py", line 4, in <module>\n    learningobjectiveModel = exec_environment(\'applications/schemeofwork/models/learningobjectiveModel.py\', request=request)\n  File "C:\\Dev\\cssow_web2py\\src\\gluon\\shell.py", line 100, in exec_environment\n    execfile(pyfile, env)\n  File "applications/schemeofwork/models/learningobjectiveModel.py", line 4, in <module>\n    learningobjectiveModel = exec_environment(\'applications/schemeofwork/models/learningobjectiveModel.py\', request=request)\n  File "C:\\Dev\\cssow_web2py\\src\\gluon\\shell.py", line 100, in exec_environment\n    execfile(pyfile, env)\n  File "applications/schemeofwork/models/learningobjectiveModel.py", line 4, in <module>\n    learningobjectiveModel = exec_environment(\'applications/schemeofwork/models/learningobjectiveModel.py\', request=request)\n  File "C:\\Dev\\cssow_web2py\\src\\gluon\\shell.py", line 100, in exec_environment\n    execfile(pyfile, env)\n  File "applications/schemeofwork/models/learningobjectiveModel.py", line 4, in <module>\n    learningobjectiveModel = exec_environment(\'applications/schemeofwork/models/learningobjectiveModel.py\', request=request)\n  File "C:\\Dev\\cssow_web2py\\src\\gluon\\shell.py", line 100, in exec_environment\n    execfile(pyfile, env)\n  File "applications/schemeofwork/models/learningobjectiveModel.py", line 4, in <module>\n    learningobjectiveModel = exec_environment(\'applications/schemeofwork/models/learningobjectiveModel.py\', request=request)\n  File "C:\\Dev\\cssow_web2py\\src\\gluon\\shell.py", line 100, in exec_environment\n    execfile(pyfile, env)\n  File "applications/schemeofwork/models/learningobjectiveModel.py", line 4, in <module>\n    learningobjectiveModel = exec_environment(\'applications/schemeofwork/models/learningobjectiveModel.py\', request=request)\n  File "C:\\Dev\\cssow_web2py\\src\\gluon\\shell.py", line 100, in exec_environment\n    execfile(pyfile, env)\n  File "applications/schemeofwork/models/learningobjectiveModel.py", line 4, in <module>\n    learningobjectiveModel = exec_environment(\'applications/schemeofwork/models/learningobjectiveModel.py\', request=request)\n  File "C:\\Dev\\cssow_web2py\\src\\gluon\\shell.py", line 100, in exec_environment\n    execfile(pyfile, env)\n  File "applications/schemeofwork/models/learningobjectiveModel.py", line 4, in <module>\n    learningobjectiveModel = exec_environment(\'applications/schemeofwork/models/learningobjectiveModel.py\', request=request)\n  File "C:\\Dev\\cssow_web2py\\src\\gluon\\shell.py", line 100, in exec_environment\n    execfile(pyfile, env)\n  File "applications/schemeofwork/models/learningobjectiveModel.py", line 4, in <module>\n    learningobjectiveModel = exec_environment(\'applications/schemeofwork/models/learningobjectiveModel.py\', request=request)\n  File "C:\\Dev\\cssow_web2py\\src\\gluon\\shell.py", line 100, in exec_environment\n    execfile(pyfile, env)\n  File "applications/schemeofwork/models/learningobjectiveModel.py", line 4, in <module>\n    learningobjectiveModel = exec_environment(\'applications/schemeofwork/models/learningobjectiveModel.py\', request=request)\n  File "C:\\Dev\\cssow_web2py\\src\\gluon\\shell.py", line 100, in exec_environment\n    execfile(pyfile, env)\n  File "applications/schemeofwork/models/learningobjectiveModel.py", line 4, in <module>\n    learningobjectiveModel = exec_environment(\'applications/schemeofwork/models/learningobjectiveModel.py\', request=request)\n  File "C:\\Dev\\cssow_web2py\\src\\gluon\\shell.py", line 100, in exec_environment\n    execfile(pyfile, env)\n  File "applications/schemeofwork/models/learningobjectiveModel.py", line 4, in <module>\n    learningobjectiveModel = exec_environment(\'applications/schemeofwork/models/learningobjectiveModel.py\', request=request)\n  File "C:\\Dev\\cssow_web2py\\src\\gluon\\shell.py", line 100, in exec_environment\n    execfile(pyfile, env)\n  File "applications/schemeofwork/models/learningobjectiveModel.py", line 4, in <module>\n    learningobjectiveModel = exec_environment(\'applications/schemeofwork/models/learningobjectiveModel.py\', request=request)\n  File "C:\\Dev\\cssow_web2py\\src\\gluon\\shell.py", line 100, in exec_environment\n    execfile(pyfile, env)\n  File "applications/schemeofwork/models/learningobjectiveModel.py", line 4, in <module>\n    learningobjectiveModel = exec_environment(\'applications/schemeofwork/models/learningobjectiveModel.py\', request=request)\n  File "C:\\Dev\\cssow_web2py\\src\\gluon\\shell.py", line 100, in exec_environment\n    execfile(pyfile, env)\n  File "applications/schemeofwork/models/learningobjectiveModel.py", line 4, in <module>\n    learningobjectiveModel = exec_environment(\'applications/schemeofwork/models/learningobjectiveModel.py\', request=request)\n  File "C:\\Dev\\cssow_web2py\\src\\gluon\\shell.py", line 100, in exec_environment\n    execfile(pyfile, env)\n  File "applications/schemeofwork/models/learningobjectiveModel.py", line 4, in <module>\n    learningobjectiveModel = exec_environment(\'applications/schemeofwork/models/learningobjectiveModel.py\', request=request)\n  File "C:\\Dev\\cssow_web2py\\src\\gluon\\shell.py", line 100, in exec_environment\n    execfile(pyfile, env)\n  File "applications/schemeofwork/models/learningobjectiveModel.py", line 4, in <module>\n    learningobjectiveModel = exec_environment(\'applications/schemeofwork/models/learningobjectiveModel.py\', request=request)\n  File "C:\\Dev\\cssow_web2py\\src\\gluon\\shell.py", line 100, in exec_environment\n    execfile(pyfile, env)\n  File "applications/schemeofwork/models/learningobjectiveModel.py", line 4, in <module>\n    learningobjectiveModel = exec_environment(\'applications/schemeofwork/models/learningobjectiveModel.py\', request=request)\n  File "C:\\Dev\\cssow_web2py\\src\\gluon\\shell.py", line 100, in exec_environment\n    execfile(pyfile, env)\n  File "applications/schemeofwork/models/learningobjectiveModel.py", line 4, in <module>\n    learningobjectiveModel = exec_environment(\'applications/schemeofwork/models/learningobjectiveModel.py\', request=request)\n  File "C:\\Dev\\cssow_web2py\\src\\gluon\\shell.py", line 100, in exec_environment\n    execfile(pyfile, env)\n  File "applications/schemeofwork/models/learningobjectiveModel.py", line 4, in <module>\n    learningobjectiveModel = exec_environment(\'applications/schemeofwork/models/learningobjectiveModel.py\', request=request)\n  File "C:\\Dev\\cssow_web2py\\src\\gluon\\shell.py", line 100, in exec_environment\n    execfile(pyfile, env)\n  File "applications/schemeofwork/models/learningobjectiveModel.py", line 4, in <module>\n    learningobjectiveModel = exec_environment(\'applications/schemeofwork/models/learningobjectiveModel.py\', request=request)\n  File "C:\\Dev\\cssow_web2py\\src\\gluon\\shell.py", line 100, in exec_environment\n    execfile(pyfile, env)\n  File "applications/schemeofwork/models/learningobjectiveModel.py", line 4, in <module>\n    learningobjectiveModel = exec_environment(\'applications/schemeofwork/models/learningobjectiveModel.py\', request=request)\n  File "C:\\Dev\\cssow_web2py\\src\\gluon\\shell.py", line 100, in exec_environment\n    execfile(pyfile, env)\n  File "applications/schemeofwork/models/learningobjectiveModel.py", line 4, in <module>\n    learningobjectiveModel = exec_environment(\'applications/schemeofwork/models/learningobjectiveModel.py\', request=request)\n  File "C:\\Dev\\cssow_web2py\\src\\gluon\\shell.py", line 100, in exec_environment\n    execfile(pyfile, env)\n  File "applications/schemeofwork/models/learningobjectiveModel.py", line 4, in <module>\n    learningobjectiveModel = exec_environment(\'applications/schemeofwork/models/learningobjectiveModel.py\', request=request)\n  File "C:\\Dev\\cssow_web2py\\src\\gluon\\shell.py", line 100, in exec_environment\n    execfile(pyfile, env)\n  File "applications/schemeofwork/models/learningobjectiveModel.py", line 4, in <module>\n    learningobjectiveModel = exec_environment(\'applications/schemeofwork/models/learningobjectiveModel.py\', request=request)\n  File "C:\\Dev\\cssow_web2py\\src\\gluon\\shell.py", line 100, in exec_environment\n    execfile(pyfile, env)\n  File "applications/schemeofwork/models/learningobjectiveModel.py", line 4, in <module>\n    learningobjectiveModel = exec_environment(\'applications/schemeofwork/models/learningobjectiveModel.py\', request=request)\n  File "C:\\Dev\\cssow_web2py\\src\\gluon\\shell.py", line 100, in exec_environment\n    execfile(pyfile, env)\n  File "applications/schemeofwork/models/learningobjectiveModel.py", line 4, in <module>\n    learningobjectiveModel = exec_environment(\'applications/schemeofwork/models/learningobjectiveModel.py\', request=request)\n  File "C:\\Dev\\cssow_web2py\\src\\gluon\\shell.py", line 100, in exec_environment\n    execfile(pyfile, env)\n  File "applications/schemeofwork/models/learningobjectiveModel.py", line 4, in <module>\n    learningobjectiveModel = exec_environment(\'applications/schemeofwork/models/learningobjectiveModel.py\', request=request)\n  File "C:\\Dev\\cssow_web2py\\src\\gluon\\shell.py", line 100, in exec_environment\n    execfile(pyfile, env)\n  File "applications/schemeofwork/models/learningobjectiveModel.py", line 4, in <module>\n    learningobjectiveModel = exec_environment(\'applications/schemeofwork/models/learningobjectiveModel.py\', request=request)\n  File "C:\\Dev\\cssow_web2py\\src\\gluon\\shell.py", line 100, in exec_environment\n    execfile(pyfile, env)\n  File "applications/schemeofwork/models/learningobjectiveModel.py", line 4, in <module>\n    learningobjectiveModel = exec_environment(\'applications/schemeofwork/models/learningobjectiveModel.py\', request=request)\n  File "C:\\Dev\\cssow_web2py\\src\\gluon\\shell.py", line 100, in exec_environment\n    execfile(pyfile, env)\n  File "applications/schemeofwork/models/learningobjectiveModel.py", line 4, in <module>\n    learningobjectiveModel = exec_environment(\'applications/schemeofwork/models/learningobjectiveModel.py\', request=request)\n  File "C:\\Dev\\cssow_web2py\\src\\gluon\\shell.py", line 100, in exec_environment\n    execfile(pyfile, env)\n  File "applications/schemeofwork/models/learningobjectiveModel.py", line 4, in <module>\n    learningobjectiveModel = exec_environment(\'applications/schemeofwork/models/learningobjectiveModel.py\', request=request)\n  File "C:\\Dev\\cssow_web2py\\src\\gluon\\shell.py", line 100, in exec_environment\n    execfile(pyfile, env)\n  File "applications/schemeofwork/models/learningobjectiveModel.py", line 4, in <module>\n    learningobjectiveModel = exec_environment(\'applications/schemeofwork/models/learningobjectiveModel.py\', request=request)\n  File "C:\\Dev\\cssow_web2py\\src\\gluon\\shell.py", line 100, in exec_environment\n    execfile(pyfile, env)\n  File "applications/schemeofwork/models/learningobjectiveModel.py", line 4, in <module>\n    learningobjectiveModel = exec_environment(\'applications/schemeofwork/models/learningobjectiveModel.py\', request=request)\n  File "C:\\Dev\\cssow_web2py\\src\\gluon\\shell.py", line 100, in exec_environment\n    execfile(pyfile, env)\n  File "applications/schemeofwork/models/learningobjectiveModel.py", line 4, in <module>\n    learningobjectiveModel = exec_environment(\'applications/schemeofwork/models/learningobjectiveModel.py\', request=request)\n  File "C:\\Dev\\cssow_web2py\\src\\gluon\\shell.py", line 100, in exec_environment\n    execfile(pyfile, env)\n  File "applications/schemeofwork/models/learningobjectiveModel.py", line 4, in <module>\n    learningobjectiveModel = exec_environment(\'applications/schemeofwork/models/learningobjectiveModel.py\', request=request)\n  File "C:\\Dev\\cssow_web2py\\src\\gluon\\shell.py", line 100, in exec_environment\n    execfile(pyfile, env)\n  File "applications/schemeofwork/models/learningobjectiveModel.py", line 4, in <module>\n    learningobjectiveModel = exec_environment(\'applications/schemeofwork/models/learningobjectiveModel.py\', request=request)\n  File "C:\\Dev\\cssow_web2py\\src\\gluon\\shell.py", line 100, in exec_environment\n    execfile(pyfile, env)\n  File "applications/schemeofwork/models/learningobjectiveModel.py", line 4, in <module>\n    learningobjectiveModel = exec_environment(\'applications/schemeofwork/models/learningobjectiveModel.py\', request=request)\n  File "C:\\Dev\\cssow_web2py\\src\\gluon\\shell.py", line 100, in exec_environment\n    execfile(pyfile, env)\n  File "applications/schemeofwork/models/learningobjectiveModel.py", line 4, in <module>\n    learningobjectiveModel = exec_environment(\'applications/schemeofwork/models/learningobjectiveModel.py\', request=request)\n  File "C:\\Dev\\cssow_web2py\\src\\gluon\\shell.py", line 100, in exec_environment\n    execfile(pyfile, env)\n  File "applications/schemeofwork/models/learningobjectiveModel.py", line 4, in <module>\n    learningobjectiveModel = exec_environment(\'applications/schemeofwork/models/learningobjectiveModel.py\', request=request)\n  File "C:\\Dev\\cssow_web2py\\src\\gluon\\shell.py", line 100, in exec_environment\n    execfile(pyfile, env)\n  File "applications/schemeofwork/models/learningobjectiveModel.py", line 4, in <module>\n    learningobjectiveModel = exec_environment(\'applications/schemeofwork/models/learningobjectiveModel.py\', request=request)\n  File "C:\\Dev\\cssow_web2py\\src\\gluon\\shell.py", line 100, in exec_environment\n    execfile(pyfile, env)\n  File "applications/schemeofwork/models/learningobjectiveModel.py", line 4, in <module>\n    learningobjectiveModel = exec_environment(\'applications/schemeofwork/models/learningobjectiveModel.py\', request=request)\n  File "C:\\Dev\\cssow_web2py\\src\\gluon\\shell.py", line 100, in exec_environment\n    execfile(pyfile, env)\n  File "applications/schemeofwork/models/learningobjectiveModel.py", line 4, in <module>\n    learningobjectiveModel = exec_environment(\'applications/schemeofwork/models/learningobjectiveModel.py\', request=request)\n  File "C:\\Dev\\cssow_web2py\\src\\gluon\\shell.py", line 100, in exec_environment\n    execfile(pyfile, env)\n  File "applications/schemeofwork/models/learningobjectiveModel.py", line 4, in <module>\n    learningobjectiveModel = exec_environment(\'applications/schemeofwork/models/learningobjectiveModel.py\', request=request)\n  File "C:\\Dev\\cssow_web2py\\src\\gluon\\shell.py", line 100, in exec_environment\n    execfile(pyfile, env)\n  File "applications/schemeofwork/models/learningobjectiveModel.py", line 4, in <module>\n    learningobjectiveModel = exec_environment(\'applications/schemeofwork/models/learningobjectiveModel.py\', request=request)\n  File "C:\\Dev\\cssow_web2py\\src\\gluon\\shell.py", line 100, in exec_environment\n    execfile(pyfile, env)\n  File "applications/schemeofwork/models/learningobjectiveModel.py", line 4, in <module>\n    learningobjectiveModel = exec_environment(\'applications/schemeofwork/models/learningobjectiveModel.py\', request=request)\n  File "C:\\Dev\\cssow_web2py\\src\\gluon\\shell.py", line 100, in exec_environment\n    execfile(pyfile, env)\n  File "applications/schemeofwork/models/learningobjectiveModel.py", line 4, in <module>\n    learningobjectiveModel = exec_environment(\'applications/schemeofwork/models/learningobjectiveModel.py\', request=request)\n  File "C:\\Dev\\cssow_web2py\\src\\gluon\\shell.py", line 100, in exec_environment\n    execfile(pyfile, env)\n  File "applications/schemeofwork/models/learningobjectiveModel.py", line 4, in <module>\n    learningobjectiveModel = exec_environment(\'applications/schemeofwork/models/learningobjectiveModel.py\', request=request)\n  File "C:\\Dev\\cssow_web2py\\src\\gluon\\shell.py", line 100, in exec_environment\n    execfile(pyfile, env)\n  File "applications/schemeofwork/models/learningobjectiveModel.py", line 4, in <module>\n    learningobjectiveModel = exec_environment(\'applications/schemeofwork/models/learningobjectiveModel.py\', request=request)\n  File "C:\\Dev\\cssow_web2py\\src\\gluon\\shell.py", line 94, in exec_environment\n    env = build_environment(request, response, session, store_current=False)\n  File "C:\\Dev\\cssow_web2py\\src\\gluon\\compileapp.py", line 427, in build_environment\n    request.env.http_accept_language)\n  File "C:\\Dev\\cssow_web2py\\src\\gluon\\languages.py", line 501, in __init__\n    self.set_current_languages()\n  File "C:\\Dev\\cssow_web2py\\src\\gluon\\languages.py", line 578, in set_current_languages\n    self.force(self.http_accept_language)\n  File "C:\\Dev\\cssow_web2py\\src\\gluon\\languages.py", line 693, in force\n    ({}, RLock()))\n  File "threading.py", line 123, in RLock\n  File "threading.py", line 133, in __init__\n  File "threading.py", line 59, in __init__\n  File "C:\\Dev\\cssow_web2py\\src\\gluon\\contrib\\dbg.py", line 114, in trace_dispatch\n    return self.dispatch_call(frame, arg)\n  File "bdb.py", line 77, in dispatch_call\n  File "bdb.py", line 152, in break_anywhere\n  File "bdb.py", line 30, in canonic\nRuntimeError: maximum recursion depth exceeded in cmp\n'
p11
s.