(dp1
S'output'
p2
S'<class \'_mysql_exceptions.ProgrammingError\'> (1064, "You have an error in your SQL syntax; check the manual that corresponds to your MySQL server version for the right syntax to use near \'ON sow.id = le.scheme_of_work_id  LEFT JOIN auth_user as user ON user.id = sow.c\' at line 1")'
p3
sS'layer'
p4
S'C:\\Dev\\cssow_web2py\\src\\applications\\schemeofwork\\controllers/learningepisode.py'
p5
sS'code'
p6
S'<code object <module> at 0AE95338, file "C:\\Dev\\cssow_web2py\\src\\applications\\schemeofwork\\controllers/learningepisode.py", line 2>'
p7
sS'snapshot'
p8
(dp9
sS'traceback'
p10
S'Traceback (most recent call last):\n  File "C:\\Dev\\cssow_web2py\\src\\gluon\\restricted.py", line 219, in restricted\n    exec(ccode, environment)\n  File "C:\\Dev\\cssow_web2py\\src\\applications\\schemeofwork\\controllers/learningepisode.py", line 51, in <module>\n  File "C:\\Dev\\cssow_web2py\\src\\gluon\\globals.py", line 421, in <lambda>\n    self._caller = lambda f: f()\n  File "C:\\Dev\\cssow_web2py\\src\\applications\\schemeofwork\\controllers/learningepisode.py", line 8, in index\n    scheme_of_work_name = schemeofworkModel.get_schemeofwork_name_only()\n  File "applications/schemeofwork/models/schemeofworkModel.py", line 171, in get_schemeofwork_name_only\n    rows = db.executesql(select_sql)\n  File "C:\\Dev\\cssow_web2py\\src\\gluon\\packages\\dal\\pydal\\base.py", line 772, in executesql\n    adapter.execute(query)\n  File "C:\\Dev\\cssow_web2py\\src\\gluon\\packages\\dal\\pydal\\adapters\\__init__.py", line 67, in wrap\n    return f(*args, **kwargs)\n  File "C:\\Dev\\cssow_web2py\\src\\gluon\\packages\\dal\\pydal\\adapters\\base.py", line 413, in execute\n    rv = self.cursor.execute(command, *args[1:], **kwargs)\n  File "MySQLdb/cursors.py", line 205, in execute\n  File "MySQLdb/connections.py", line 36, in defaulterrorhandler\nProgrammingError: (1064, "You have an error in your SQL syntax; check the manual that corresponds to your MySQL server version for the right syntax to use near \'ON sow.id = le.scheme_of_work_id  LEFT JOIN auth_user as user ON user.id = sow.c\' at line 1")\n'
p11
s.